Archive member included to satisfy reference by file (symbol)

/usr/lib/gcc/arm-none-eabi/4.9.3/../../../arm-none-eabi/lib/armv7-m/libm.a(lib_a-w_atan2.o)
                              build/obj/main.o (atan2)
/usr/lib/gcc/arm-none-eabi/4.9.3/../../../arm-none-eabi/lib/armv7-m/libm.a(lib_a-w_sqrt.o)
                              build/obj/main.o (sqrt)
/usr/lib/gcc/arm-none-eabi/4.9.3/../../../arm-none-eabi/lib/armv7-m/libm.a(lib_a-e_atan2.o)
                              /usr/lib/gcc/arm-none-eabi/4.9.3/../../../arm-none-eabi/lib/armv7-m/libm.a(lib_a-w_atan2.o) (__ieee754_atan2)
/usr/lib/gcc/arm-none-eabi/4.9.3/../../../arm-none-eabi/lib/armv7-m/libm.a(lib_a-e_sqrt.o)
                              /usr/lib/gcc/arm-none-eabi/4.9.3/../../../arm-none-eabi/lib/armv7-m/libm.a(lib_a-w_sqrt.o) (__ieee754_sqrt)
/usr/lib/gcc/arm-none-eabi/4.9.3/../../../arm-none-eabi/lib/armv7-m/libm.a(lib_a-s_atan.o)
                              /usr/lib/gcc/arm-none-eabi/4.9.3/../../../arm-none-eabi/lib/armv7-m/libm.a(lib_a-e_atan2.o) (atan)
/usr/lib/gcc/arm-none-eabi/4.9.3/../../../arm-none-eabi/lib/armv7-m/libm.a(lib_a-s_fabs.o)
                              /usr/lib/gcc/arm-none-eabi/4.9.3/../../../arm-none-eabi/lib/armv7-m/libm.a(lib_a-e_atan2.o) (fabs)
/usr/lib/gcc/arm-none-eabi/4.9.3/../../../arm-none-eabi/lib/armv7-m/libm.a(lib_a-s_fpclassify.o)
                              /usr/lib/gcc/arm-none-eabi/4.9.3/../../../arm-none-eabi/lib/armv7-m/libm.a(lib_a-w_sqrt.o) (__fpclassifyd)
/usr/lib/gcc/arm-none-eabi/4.9.3/../../../arm-none-eabi/lib/armv7-m/libm.a(lib_a-s_lib_ver.o)
                              /usr/lib/gcc/arm-none-eabi/4.9.3/../../../arm-none-eabi/lib/armv7-m/libm.a(lib_a-w_sqrt.o) (__fdlib_version)
/usr/lib/gcc/arm-none-eabi/4.9.3/../../../arm-none-eabi/lib/armv7-m/libm.a(lib_a-s_matherr.o)
                              /usr/lib/gcc/arm-none-eabi/4.9.3/../../../arm-none-eabi/lib/armv7-m/libm.a(lib_a-w_sqrt.o) (matherr)
/usr/lib/gcc/arm-none-eabi/4.9.3/armv7-m/libgcc.a(_arm_addsubdf3.o)
                              build/obj/hts221.o (__aeabi_dsub)
/usr/lib/gcc/arm-none-eabi/4.9.3/armv7-m/libgcc.a(_arm_muldivdf3.o)
                              build/obj/hts221.o (__aeabi_dmul)
/usr/lib/gcc/arm-none-eabi/4.9.3/armv7-m/libgcc.a(_arm_cmpdf2.o)
                              /usr/lib/gcc/arm-none-eabi/4.9.3/../../../arm-none-eabi/lib/armv7-m/libm.a(lib_a-w_sqrt.o) (__aeabi_dcmplt)
/usr/lib/gcc/arm-none-eabi/4.9.3/armv7-m/libgcc.a(_arm_fixdfsi.o)
                              build/obj/lsm9ds1.o (__aeabi_d2iz)
/usr/lib/gcc/arm-none-eabi/4.9.3/armv7-m/libgcc.a(_arm_truncdfsf2.o)
                              build/obj/hts221.o (__aeabi_d2f)
/usr/lib/gcc/arm-none-eabi/4.9.3/armv7-m/libgcc.a(_arm_addsubsf3.o)
                              build/obj/main.o (__aeabi_fsub)
/usr/lib/gcc/arm-none-eabi/4.9.3/armv7-m/libgcc.a(_arm_muldivsf3.o)
                              build/obj/lsm9ds1.o (__aeabi_fmul)
/usr/lib/gcc/arm-none-eabi/4.9.3/armv7-m/libgcc.a(_arm_cmpsf2.o)
                              build/obj/main.o (__aeabi_fcmplt)
/usr/lib/gcc/arm-none-eabi/4.9.3/armv7-m/libgcc.a(_arm_fixsfsi.o)
                              build/obj/main.o (__aeabi_f2iz)
/usr/lib/gcc/arm-none-eabi/4.9.3/armv7-m/libgcc.a(unwind-arm.o)
                              build/obj/i2c.o (__aeabi_unwind_cpp_pr0)
/usr/lib/gcc/arm-none-eabi/4.9.3/armv7-m/libgcc.a(libunwind.o)
                              /usr/lib/gcc/arm-none-eabi/4.9.3/armv7-m/libgcc.a(unwind-arm.o) (restore_core_regs)
/usr/lib/gcc/arm-none-eabi/4.9.3/armv7-m/libgcc.a(pr-support.o)
                              /usr/lib/gcc/arm-none-eabi/4.9.3/armv7-m/libgcc.a(unwind-arm.o) (__gnu_unwind_execute)
/usr/lib/gcc/arm-none-eabi/4.9.3/../../../arm-none-eabi/lib/armv7-m/libc.a(lib_a-abort.o)
                              /usr/lib/gcc/arm-none-eabi/4.9.3/armv7-m/libgcc.a(unwind-arm.o) (abort)
/usr/lib/gcc/arm-none-eabi/4.9.3/../../../arm-none-eabi/lib/armv7-m/libc.a(lib_a-assert.o)
                              build/obj/atmel_adc.o (__assert_func)
/usr/lib/gcc/arm-none-eabi/4.9.3/../../../arm-none-eabi/lib/armv7-m/libc.a(lib_a-errno.o)
                              /usr/lib/gcc/arm-none-eabi/4.9.3/../../../arm-none-eabi/lib/armv7-m/libm.a(lib_a-w_sqrt.o) (__errno)
/usr/lib/gcc/arm-none-eabi/4.9.3/../../../arm-none-eabi/lib/armv7-m/libc.a(lib_a-fiprintf.o)
                              /usr/lib/gcc/arm-none-eabi/4.9.3/../../../arm-none-eabi/lib/armv7-m/libc.a(lib_a-assert.o) (fiprintf)
/usr/lib/gcc/arm-none-eabi/4.9.3/../../../arm-none-eabi/lib/armv7-m/libc.a(lib_a-impure.o)
                              /usr/lib/gcc/arm-none-eabi/4.9.3/../../../arm-none-eabi/lib/armv7-m/libc.a(lib_a-assert.o) (_impure_ptr)
/usr/lib/gcc/arm-none-eabi/4.9.3/../../../arm-none-eabi/lib/armv7-m/libc.a(lib_a-memcpy.o)
                              /usr/lib/gcc/arm-none-eabi/4.9.3/armv7-m/libgcc.a(unwind-arm.o) (memcpy)
/usr/lib/gcc/arm-none-eabi/4.9.3/../../../arm-none-eabi/lib/armv7-m/libc.a(lib_a-memset.o)
                              build/obj/syscalls.o (memset)
/usr/lib/gcc/arm-none-eabi/4.9.3/../../../arm-none-eabi/lib/armv7-m/libc.a(lib_a-signal.o)
                              /usr/lib/gcc/arm-none-eabi/4.9.3/../../../arm-none-eabi/lib/armv7-m/libc.a(lib_a-abort.o) (raise)
/usr/lib/gcc/arm-none-eabi/4.9.3/../../../arm-none-eabi/lib/armv7-m/libc.a(lib_a-signalr.o)
                              /usr/lib/gcc/arm-none-eabi/4.9.3/../../../arm-none-eabi/lib/armv7-m/libc.a(lib_a-signal.o) (_kill_r)
/usr/lib/gcc/arm-none-eabi/4.9.3/../../../arm-none-eabi/lib/armv7-m/libc.a(lib_a-vfiprintf.o)
                              /usr/lib/gcc/arm-none-eabi/4.9.3/../../../arm-none-eabi/lib/armv7-m/libc.a(lib_a-fiprintf.o) (_vfiprintf_r)
/usr/lib/gcc/arm-none-eabi/4.9.3/../../../arm-none-eabi/lib/armv7-m/libc.a(lib_a-wsetup.o)
                              /usr/lib/gcc/arm-none-eabi/4.9.3/../../../arm-none-eabi/lib/armv7-m/libc.a(lib_a-vfiprintf.o) (__swsetup_r)
/usr/lib/gcc/arm-none-eabi/4.9.3/../../../arm-none-eabi/lib/armv7-m/libc.a(lib_a-fflush.o)
                              /usr/lib/gcc/arm-none-eabi/4.9.3/../../../arm-none-eabi/lib/armv7-m/libc.a(lib_a-vfiprintf.o) (_fflush_r)
/usr/lib/gcc/arm-none-eabi/4.9.3/../../../arm-none-eabi/lib/armv7-m/libc.a(lib_a-findfp.o)
                              /usr/lib/gcc/arm-none-eabi/4.9.3/../../../arm-none-eabi/lib/armv7-m/libc.a(lib_a-vfiprintf.o) (__sinit)
/usr/lib/gcc/arm-none-eabi/4.9.3/../../../arm-none-eabi/lib/armv7-m/libc.a(lib_a-fputwc.o)
                              /usr/lib/gcc/arm-none-eabi/4.9.3/../../../arm-none-eabi/lib/armv7-m/libc.a(lib_a-vfiprintf.o) (_fputwc_r)
/usr/lib/gcc/arm-none-eabi/4.9.3/../../../arm-none-eabi/lib/armv7-m/libc.a(lib_a-freer.o)
                              /usr/lib/gcc/arm-none-eabi/4.9.3/../../../arm-none-eabi/lib/armv7-m/libc.a(lib_a-wsetup.o) (_free_r)
/usr/lib/gcc/arm-none-eabi/4.9.3/../../../arm-none-eabi/lib/armv7-m/libc.a(lib_a-fvwrite.o)
                              /usr/lib/gcc/arm-none-eabi/4.9.3/../../../arm-none-eabi/lib/armv7-m/libc.a(lib_a-vfiprintf.o) (__sfvwrite_r)
/usr/lib/gcc/arm-none-eabi/4.9.3/../../../arm-none-eabi/lib/armv7-m/libc.a(lib_a-fwalk.o)
                              /usr/lib/gcc/arm-none-eabi/4.9.3/../../../arm-none-eabi/lib/armv7-m/libc.a(lib_a-findfp.o) (_fwalk)
/usr/lib/gcc/arm-none-eabi/4.9.3/../../../arm-none-eabi/lib/armv7-m/libc.a(lib_a-locale.o)
                              /usr/lib/gcc/arm-none-eabi/4.9.3/../../../arm-none-eabi/lib/armv7-m/libc.a(lib_a-fputwc.o) (__locale_mb_cur_max)
/usr/lib/gcc/arm-none-eabi/4.9.3/../../../arm-none-eabi/lib/armv7-m/libc.a(lib_a-makebuf.o)
                              /usr/lib/gcc/arm-none-eabi/4.9.3/../../../arm-none-eabi/lib/armv7-m/libc.a(lib_a-wsetup.o) (__smakebuf_r)
/usr/lib/gcc/arm-none-eabi/4.9.3/../../../arm-none-eabi/lib/armv7-m/libc.a(lib_a-mallocr.o)
                              /usr/lib/gcc/arm-none-eabi/4.9.3/../../../arm-none-eabi/lib/armv7-m/libc.a(lib_a-signal.o) (_malloc_r)
/usr/lib/gcc/arm-none-eabi/4.9.3/../../../arm-none-eabi/lib/armv7-m/libc.a(lib_a-memchr.o)
                              /usr/lib/gcc/arm-none-eabi/4.9.3/../../../arm-none-eabi/lib/armv7-m/libc.a(lib_a-vfiprintf.o) (memchr)
/usr/lib/gcc/arm-none-eabi/4.9.3/../../../arm-none-eabi/lib/armv7-m/libc.a(lib_a-memmove.o)
                              /usr/lib/gcc/arm-none-eabi/4.9.3/../../../arm-none-eabi/lib/armv7-m/libc.a(lib_a-fvwrite.o) (memmove)
/usr/lib/gcc/arm-none-eabi/4.9.3/../../../arm-none-eabi/lib/armv7-m/libc.a(lib_a-mlock.o)
                              /usr/lib/gcc/arm-none-eabi/4.9.3/../../../arm-none-eabi/lib/armv7-m/libc.a(lib_a-freer.o) (__malloc_lock)
/usr/lib/gcc/arm-none-eabi/4.9.3/../../../arm-none-eabi/lib/armv7-m/libc.a(lib_a-reallocr.o)
                              /usr/lib/gcc/arm-none-eabi/4.9.3/../../../arm-none-eabi/lib/armv7-m/libc.a(lib_a-fvwrite.o) (_realloc_r)
/usr/lib/gcc/arm-none-eabi/4.9.3/../../../arm-none-eabi/lib/armv7-m/libc.a(lib_a-reent.o)
                              /usr/lib/gcc/arm-none-eabi/4.9.3/../../../arm-none-eabi/lib/armv7-m/libc.a(lib_a-signalr.o) (errno)
/usr/lib/gcc/arm-none-eabi/4.9.3/../../../arm-none-eabi/lib/armv7-m/libc.a(lib_a-stdio.o)
                              /usr/lib/gcc/arm-none-eabi/4.9.3/../../../arm-none-eabi/lib/armv7-m/libc.a(lib_a-findfp.o) (__sread)
/usr/lib/gcc/arm-none-eabi/4.9.3/../../../arm-none-eabi/lib/armv7-m/libc.a(lib_a-strcmp.o)
                              /usr/lib/gcc/arm-none-eabi/4.9.3/../../../arm-none-eabi/lib/armv7-m/libc.a(lib_a-locale.o) (strcmp)
/usr/lib/gcc/arm-none-eabi/4.9.3/../../../arm-none-eabi/lib/armv7-m/libc.a(lib_a-strlen.o)
                              /usr/lib/gcc/arm-none-eabi/4.9.3/../../../arm-none-eabi/lib/armv7-m/libc.a(lib_a-vfiprintf.o) (strlen)
/usr/lib/gcc/arm-none-eabi/4.9.3/../../../arm-none-eabi/lib/armv7-m/libc.a(lib_a-wbuf.o)
                              /usr/lib/gcc/arm-none-eabi/4.9.3/../../../arm-none-eabi/lib/armv7-m/libc.a(lib_a-fputwc.o) (__swbuf_r)
/usr/lib/gcc/arm-none-eabi/4.9.3/../../../arm-none-eabi/lib/armv7-m/libc.a(lib_a-wcrtomb.o)
                              /usr/lib/gcc/arm-none-eabi/4.9.3/../../../arm-none-eabi/lib/armv7-m/libc.a(lib_a-fputwc.o) (_wcrtomb_r)
/usr/lib/gcc/arm-none-eabi/4.9.3/../../../arm-none-eabi/lib/armv7-m/libc.a(lib_a-wctomb_r.o)
                              /usr/lib/gcc/arm-none-eabi/4.9.3/../../../arm-none-eabi/lib/armv7-m/libc.a(lib_a-wcrtomb.o) (__wctomb)
/usr/lib/gcc/arm-none-eabi/4.9.3/../../../arm-none-eabi/lib/armv7-m/libc.a(lib_a-fclose.o)
                              /usr/lib/gcc/arm-none-eabi/4.9.3/../../../arm-none-eabi/lib/armv7-m/libc.a(lib_a-findfp.o) (_fclose_r)
/usr/lib/gcc/arm-none-eabi/4.9.3/armv7-m/libgcc.a(_aeabi_uldivmod.o)
                              /usr/lib/gcc/arm-none-eabi/4.9.3/../../../arm-none-eabi/lib/armv7-m/libc.a(lib_a-vfiprintf.o) (__aeabi_uldivmod)
/usr/lib/gcc/arm-none-eabi/4.9.3/armv7-m/libgcc.a(bpabi.o)
                              /usr/lib/gcc/arm-none-eabi/4.9.3/armv7-m/libgcc.a(_aeabi_uldivmod.o) (__gnu_uldivmod_helper)
/usr/lib/gcc/arm-none-eabi/4.9.3/armv7-m/libgcc.a(_dvmd_tls.o)
                              /usr/lib/gcc/arm-none-eabi/4.9.3/armv7-m/libgcc.a(_aeabi_uldivmod.o) (__aeabi_ldiv0)
/usr/lib/gcc/arm-none-eabi/4.9.3/armv7-m/libgcc.a(_divdi3.o)
                              /usr/lib/gcc/arm-none-eabi/4.9.3/armv7-m/libgcc.a(bpabi.o) (__divdi3)
/usr/lib/gcc/arm-none-eabi/4.9.3/armv7-m/libgcc.a(_udivdi3.o)
                              /usr/lib/gcc/arm-none-eabi/4.9.3/armv7-m/libgcc.a(bpabi.o) (__udivdi3)

Allocating common symbols
Common symbol       size              file

errno               0x4               /usr/lib/gcc/arm-none-eabi/4.9.3/../../../arm-none-eabi/lib/armv7-m/libc.a(lib_a-reent.o)

Discarded input sections

 .text          0x0000000000000000        0x0 build/obj/crt0.o
 .data          0x0000000000000000        0x0 build/obj/crt0.o
 .bss           0x0000000000000000        0x0 build/obj/crt0.o
 .text.__early_init
                0x0000000000000000        0x4 build/obj/crt0.o
 .text          0x0000000000000000        0x0 build/obj/vectors.o
 .data          0x0000000000000000        0x0 build/obj/vectors.o
 .bss           0x0000000000000000        0x0 build/obj/vectors.o
 .text          0x0000000000000000        0x0 build/obj/chcore.o
 .data          0x0000000000000000        0x0 build/obj/chcore.o
 .bss           0x0000000000000000        0x0 build/obj/chcore.o
 .text.port_halt
                0x0000000000000000        0x4 build/obj/chcore.o
 .debug_info    0x0000000000000000       0x8b build/obj/chcore.o
 .debug_abbrev  0x0000000000000000       0x42 build/obj/chcore.o
 .debug_aranges
                0x0000000000000000       0x20 build/obj/chcore.o
 .debug_ranges  0x0000000000000000       0x10 build/obj/chcore.o
 .debug_line    0x0000000000000000       0x69 build/obj/chcore.o
 .debug_str     0x0000000000000000      0x1d0 build/obj/chcore.o
 .comment       0x0000000000000000       0x39 build/obj/chcore.o
 .debug_frame   0x0000000000000000       0x20 build/obj/chcore.o
 .ARM.attributes
                0x0000000000000000       0x33 build/obj/chcore.o
 .text          0x0000000000000000        0x0 build/obj/chcore_v7m.o
 .data          0x0000000000000000        0x0 build/obj/chcore_v7m.o
 .bss           0x0000000000000000        0x0 build/obj/chcore_v7m.o
 .text          0x0000000000000000        0x0 build/obj/nvic.o
 .data          0x0000000000000000        0x0 build/obj/nvic.o
 .bss           0x0000000000000000        0x0 build/obj/nvic.o
 .text.nvicDisableVector
                0x0000000000000000       0x40 build/obj/nvic.o
 .text          0x0000000000000000        0x0 build/obj/chsys.o
 .data          0x0000000000000000        0x0 build/obj/chsys.o
 .bss           0x0000000000000000        0x0 build/obj/chsys.o
 .text          0x0000000000000000        0x0 build/obj/chlists.o
 .data          0x0000000000000000        0x0 build/obj/chlists.o
 .bss           0x0000000000000000        0x0 build/obj/chlists.o
 .debug_info    0x0000000000000000       0x72 build/obj/chlists.o
 .debug_abbrev  0x0000000000000000       0x26 build/obj/chlists.o
 .debug_aranges
                0x0000000000000000       0x18 build/obj/chlists.o
 .debug_line    0x0000000000000000       0x1d build/obj/chlists.o
 .debug_str     0x0000000000000000      0x1c1 build/obj/chlists.o
 .comment       0x0000000000000000       0x39 build/obj/chlists.o
 .ARM.attributes
                0x0000000000000000       0x33 build/obj/chlists.o
 .text          0x0000000000000000        0x0 build/obj/chvt.o
 .data          0x0000000000000000        0x0 build/obj/chvt.o
 .bss           0x0000000000000000        0x0 build/obj/chvt.o
 .text.chTimeIsWithin
                0x0000000000000000       0x28 build/obj/chvt.o
 .text          0x0000000000000000        0x0 build/obj/chschd.o
 .data          0x0000000000000000        0x0 build/obj/chschd.o
 .bss           0x0000000000000000        0x0 build/obj/chschd.o
 .text.chSchRescheduleS
                0x0000000000000000       0x18 build/obj/chschd.o
 .text          0x0000000000000000        0x0 build/obj/chthreads.o
 .data          0x0000000000000000        0x0 build/obj/chthreads.o
 .bss           0x0000000000000000        0x0 build/obj/chthreads.o
 .text.chThdCreateI
                0x0000000000000000       0x6c build/obj/chthreads.o
 .text.chThdSetPriority
                0x0000000000000000       0x30 build/obj/chthreads.o
 .text.chThdResume
                0x0000000000000000       0x1c build/obj/chthreads.o
 .text.chThdTerminate
                0x0000000000000000       0x18 build/obj/chthreads.o
 .text.chThdSleepUntil
                0x0000000000000000       0x24 build/obj/chthreads.o
 .text.chThdYield
                0x0000000000000000       0x28 build/obj/chthreads.o
 .text.chThdWait
                0x0000000000000000       0x38 build/obj/chthreads.o
 .text          0x0000000000000000        0x0 build/obj/chdynamic.o
 .data          0x0000000000000000        0x0 build/obj/chdynamic.o
 .bss           0x0000000000000000        0x0 build/obj/chdynamic.o
 .text.chThdAddRef
                0x0000000000000000       0x14 build/obj/chdynamic.o
 .text.chThdRelease
                0x0000000000000000       0x50 build/obj/chdynamic.o
 .text.chThdCreateFromHeap
                0x0000000000000000       0x3c build/obj/chdynamic.o
 .text.chThdCreateFromMemoryPool
                0x0000000000000000       0x44 build/obj/chdynamic.o
 .debug_info    0x0000000000000000      0x86d build/obj/chdynamic.o
 .debug_abbrev  0x0000000000000000      0x232 build/obj/chdynamic.o
 .debug_loc     0x0000000000000000      0x1dc build/obj/chdynamic.o
 .debug_aranges
                0x0000000000000000       0x38 build/obj/chdynamic.o
 .debug_ranges  0x0000000000000000       0x58 build/obj/chdynamic.o
 .debug_line    0x0000000000000000      0x221 build/obj/chdynamic.o
 .debug_str     0x0000000000000000      0x4aa build/obj/chdynamic.o
 .comment       0x0000000000000000       0x39 build/obj/chdynamic.o
 .debug_frame   0x0000000000000000       0x84 build/obj/chdynamic.o
 .ARM.attributes
                0x0000000000000000       0x33 build/obj/chdynamic.o
 .text          0x0000000000000000        0x0 build/obj/chregistry.o
 .data          0x0000000000000000        0x0 build/obj/chregistry.o
 .bss           0x0000000000000000        0x0 build/obj/chregistry.o
 .text.chRegFirstThread
                0x0000000000000000       0x1c build/obj/chregistry.o
 .text.chRegNextThread
                0x0000000000000000       0x2c build/obj/chregistry.o
 .debug_info    0x0000000000000000      0x4ea build/obj/chregistry.o
 .debug_abbrev  0x0000000000000000      0x162 build/obj/chregistry.o
 .debug_loc     0x0000000000000000       0x3f build/obj/chregistry.o
 .debug_aranges
                0x0000000000000000       0x28 build/obj/chregistry.o
 .debug_ranges  0x0000000000000000       0x30 build/obj/chregistry.o
 .debug_line    0x0000000000000000      0x18b build/obj/chregistry.o
 .debug_str     0x0000000000000000      0x3bc build/obj/chregistry.o
 .comment       0x0000000000000000       0x39 build/obj/chregistry.o
 .debug_frame   0x0000000000000000       0x3c build/obj/chregistry.o
 .ARM.attributes
                0x0000000000000000       0x33 build/obj/chregistry.o
 .text          0x0000000000000000        0x0 build/obj/chsem.o
 .data          0x0000000000000000        0x0 build/obj/chsem.o
 .bss           0x0000000000000000        0x0 build/obj/chsem.o
 .text.chSemInit
                0x0000000000000000        0x8 build/obj/chsem.o
 .text.chSemResetI
                0x0000000000000000       0x28 build/obj/chsem.o
 .text.chSemReset
                0x0000000000000000       0x18 build/obj/chsem.o
 .text.chSemWait
                0x0000000000000000       0x44 build/obj/chsem.o
 .text.chSemWaitS
                0x0000000000000000       0x34 build/obj/chsem.o
 .text.chSemWaitTimeoutS
                0x0000000000000000       0x40 build/obj/chsem.o
 .text.chSemWaitTimeout
                0x0000000000000000       0x14 build/obj/chsem.o
 .text.chSemSignal
                0x0000000000000000       0x34 build/obj/chsem.o
 .text.chSemSignalI
                0x0000000000000000       0x28 build/obj/chsem.o
 .text.chSemAddCounterI
                0x0000000000000000       0x30 build/obj/chsem.o
 .text.chSemSignalWait
                0x0000000000000000       0x6c build/obj/chsem.o
 .debug_info    0x0000000000000000      0xb2f build/obj/chsem.o
 .debug_abbrev  0x0000000000000000      0x34b build/obj/chsem.o
 .debug_loc     0x0000000000000000      0x588 build/obj/chsem.o
 .debug_aranges
                0x0000000000000000       0x70 build/obj/chsem.o
 .debug_ranges  0x0000000000000000      0x160 build/obj/chsem.o
 .debug_line    0x0000000000000000      0x334 build/obj/chsem.o
 .debug_str     0x0000000000000000      0x4ab build/obj/chsem.o
 .comment       0x0000000000000000       0x39 build/obj/chsem.o
 .debug_frame   0x0000000000000000      0x158 build/obj/chsem.o
 .ARM.attributes
                0x0000000000000000       0x33 build/obj/chsem.o
 .text          0x0000000000000000        0x0 build/obj/chmtx.o
 .data          0x0000000000000000        0x0 build/obj/chmtx.o
 .bss           0x0000000000000000        0x0 build/obj/chmtx.o
 .text.chMtxLockS
                0x0000000000000000       0xc8 build/obj/chmtx.o
 .text.chMtxLock
                0x0000000000000000       0x14 build/obj/chmtx.o
 .text.chMtxTryLock
                0x0000000000000000       0x30 build/obj/chmtx.o
 .text.chMtxTryLockS
                0x0000000000000000       0x20 build/obj/chmtx.o
 .text.chMtxUnlock
                0x0000000000000000       0x64 build/obj/chmtx.o
 .text.chMtxUnlockS
                0x0000000000000000       0x50 build/obj/chmtx.o
 .text.chMtxUnlockAll
                0x0000000000000000       0x54 build/obj/chmtx.o
 .text          0x0000000000000000        0x0 build/obj/chcond.o
 .data          0x0000000000000000        0x0 build/obj/chcond.o
 .bss           0x0000000000000000        0x0 build/obj/chcond.o
 .text.chCondInit
                0x0000000000000000        0x8 build/obj/chcond.o
 .text.chCondSignal
                0x0000000000000000       0x30 build/obj/chcond.o
 .text.chCondSignalI
                0x0000000000000000       0x20 build/obj/chcond.o
 .text.chCondBroadcastI
                0x0000000000000000       0x24 build/obj/chcond.o
 .text.chCondBroadcast
                0x0000000000000000       0x18 build/obj/chcond.o
 .text.chCondWaitS
                0x0000000000000000       0x44 build/obj/chcond.o
 .text.chCondWait
                0x0000000000000000       0x14 build/obj/chcond.o
 .text.chCondWaitTimeoutS
                0x0000000000000000       0x4c build/obj/chcond.o
 .text.chCondWaitTimeout
                0x0000000000000000       0x14 build/obj/chcond.o
 .debug_info    0x0000000000000000      0x96b build/obj/chcond.o
 .debug_abbrev  0x0000000000000000      0x2d5 build/obj/chcond.o
 .debug_loc     0x0000000000000000      0x372 build/obj/chcond.o
 .debug_aranges
                0x0000000000000000       0x60 build/obj/chcond.o
 .debug_ranges  0x0000000000000000       0xd0 build/obj/chcond.o
 .debug_line    0x0000000000000000      0x2b9 build/obj/chcond.o
 .debug_str     0x0000000000000000      0x49f build/obj/chcond.o
 .comment       0x0000000000000000       0x39 build/obj/chcond.o
 .debug_frame   0x0000000000000000      0x11c build/obj/chcond.o
 .ARM.attributes
                0x0000000000000000       0x33 build/obj/chcond.o
 .text          0x0000000000000000        0x0 build/obj/chevents.o
 .data          0x0000000000000000        0x0 build/obj/chevents.o
 .bss           0x0000000000000000        0x0 build/obj/chevents.o
 .text.chEvtRegisterMask
                0x0000000000000000       0x28 build/obj/chevents.o
 .text.chEvtUnregister
                0x0000000000000000       0x2c build/obj/chevents.o
 .text.chEvtClearFlags
                0x0000000000000000       0x28 build/obj/chevents.o
 .text.chEvtAddFlags
                0x0000000000000000       0x1c build/obj/chevents.o
 .text.chEvtSignalFlags
                0x0000000000000000       0x18 build/obj/chevents.o
 .text.chEvtBroadcastFlags
                0x0000000000000000       0x18 build/obj/chevents.o
 .text.chEvtDispatch
                0x0000000000000000       0x34 build/obj/chevents.o
 .text.chEvtWaitOne
                0x0000000000000000       0x3c build/obj/chevents.o
 .text.chEvtWaitAny
                0x0000000000000000       0x38 build/obj/chevents.o
 .text.chEvtWaitAll
                0x0000000000000000       0x38 build/obj/chevents.o
 .text.chEvtWaitOneTimeout
                0x0000000000000000       0x54 build/obj/chevents.o
 .text.chEvtWaitAnyTimeout
                0x0000000000000000       0x54 build/obj/chevents.o
 .text.chEvtWaitAllTimeout
                0x0000000000000000       0x50 build/obj/chevents.o
 .text          0x0000000000000000        0x0 build/obj/chmsg.o
 .data          0x0000000000000000        0x0 build/obj/chmsg.o
 .bss           0x0000000000000000        0x0 build/obj/chmsg.o
 .text.chMsgSend
                0x0000000000000000       0x40 build/obj/chmsg.o
 .text.chMsgWait
                0x0000000000000000       0x3c build/obj/chmsg.o
 .text.chMsgRelease
                0x0000000000000000       0x14 build/obj/chmsg.o
 .debug_info    0x0000000000000000      0x65b build/obj/chmsg.o
 .debug_abbrev  0x0000000000000000      0x220 build/obj/chmsg.o
 .debug_loc     0x0000000000000000       0xe5 build/obj/chmsg.o
 .debug_aranges
                0x0000000000000000       0x30 build/obj/chmsg.o
 .debug_ranges  0x0000000000000000       0x68 build/obj/chmsg.o
 .debug_line    0x0000000000000000      0x1c4 build/obj/chmsg.o
 .debug_str     0x0000000000000000      0x3ea build/obj/chmsg.o
 .comment       0x0000000000000000       0x39 build/obj/chmsg.o
 .debug_frame   0x0000000000000000       0x68 build/obj/chmsg.o
 .ARM.attributes
                0x0000000000000000       0x33 build/obj/chmsg.o
 .text          0x0000000000000000        0x0 build/obj/chmboxes.o
 .data          0x0000000000000000        0x0 build/obj/chmboxes.o
 .bss           0x0000000000000000        0x0 build/obj/chmboxes.o
 .text.chMBInit
                0x0000000000000000       0x28 build/obj/chmboxes.o
 .text.chMBReset
                0x0000000000000000       0x34 build/obj/chmboxes.o
 .text.chMBPostS
                0x0000000000000000       0x38 build/obj/chmboxes.o
 .text.chMBPost
                0x0000000000000000       0x14 build/obj/chmboxes.o
 .text.chMBPostI
                0x0000000000000000       0x34 build/obj/chmboxes.o
 .text.chMBPostAheadS
                0x0000000000000000       0x38 build/obj/chmboxes.o
 .text.chMBPostAhead
                0x0000000000000000       0x14 build/obj/chmboxes.o
 .text.chMBPostAheadI
                0x0000000000000000       0x30 build/obj/chmboxes.o
 .text.chMBFetchS
                0x0000000000000000       0x38 build/obj/chmboxes.o
 .text.chMBFetch
                0x0000000000000000       0x14 build/obj/chmboxes.o
 .text.chMBFetchI
                0x0000000000000000       0x38 build/obj/chmboxes.o
 .debug_info    0x0000000000000000      0xb1a build/obj/chmboxes.o
 .debug_abbrev  0x0000000000000000      0x2d3 build/obj/chmboxes.o
 .debug_loc     0x0000000000000000      0x57a build/obj/chmboxes.o
 .debug_aranges
                0x0000000000000000       0x70 build/obj/chmboxes.o
 .debug_ranges  0x0000000000000000       0x90 build/obj/chmboxes.o
 .debug_line    0x0000000000000000      0x290 build/obj/chmboxes.o
 .debug_str     0x0000000000000000      0x469 build/obj/chmboxes.o
 .comment       0x0000000000000000       0x39 build/obj/chmboxes.o
 .debug_frame   0x0000000000000000      0x160 build/obj/chmboxes.o
 .ARM.attributes
                0x0000000000000000       0x33 build/obj/chmboxes.o
 .text          0x0000000000000000        0x0 build/obj/chqueues.o
 .data          0x0000000000000000        0x0 build/obj/chqueues.o
 .bss           0x0000000000000000        0x0 build/obj/chqueues.o
 .text.chIQResetI
                0x0000000000000000       0x2c build/obj/chqueues.o
 .text.chOQResetI
                0x0000000000000000       0x30 build/obj/chqueues.o
 .text          0x0000000000000000        0x0 build/obj/chmemcore.o
 .data          0x0000000000000000        0x0 build/obj/chmemcore.o
 .bss           0x0000000000000000        0x0 build/obj/chmemcore.o
 .text.chCoreAllocI
                0x0000000000000000       0x2c build/obj/chmemcore.o
 .text.chCoreStatus
                0x0000000000000000       0x14 build/obj/chmemcore.o
 .text          0x0000000000000000        0x0 build/obj/chheap.o
 .data          0x0000000000000000        0x0 build/obj/chheap.o
 .bss           0x0000000000000000        0x0 build/obj/chheap.o
 .text.chHeapInit
                0x0000000000000000       0x14 build/obj/chheap.o
 .text.chHeapAlloc
                0x0000000000000000       0x80 build/obj/chheap.o
 .text.chHeapFree
                0x0000000000000000       0x90 build/obj/chheap.o
 .text.chHeapStatus
                0x0000000000000000       0x40 build/obj/chheap.o
 .text          0x0000000000000000        0x0 build/obj/chmempools.o
 .data          0x0000000000000000        0x0 build/obj/chmempools.o
 .bss           0x0000000000000000        0x0 build/obj/chmempools.o
 .text.chPoolInit
                0x0000000000000000       0x10 build/obj/chmempools.o
 .text.chPoolAllocI
                0x0000000000000000       0x18 build/obj/chmempools.o
 .text.chPoolAlloc
                0x0000000000000000       0x2c build/obj/chmempools.o
 .text.chPoolFreeI
                0x0000000000000000        0x8 build/obj/chmempools.o
 .text.chPoolFree
                0x0000000000000000       0x14 build/obj/chmempools.o
 .debug_info    0x0000000000000000      0x311 build/obj/chmempools.o
 .debug_abbrev  0x0000000000000000      0x1f0 build/obj/chmempools.o
 .debug_loc     0x0000000000000000       0xfd build/obj/chmempools.o
 .debug_aranges
                0x0000000000000000       0x40 build/obj/chmempools.o
 .debug_ranges  0x0000000000000000       0x90 build/obj/chmempools.o
 .debug_line    0x0000000000000000      0x19f build/obj/chmempools.o
 .debug_str     0x0000000000000000      0x27c build/obj/chmempools.o
 .comment       0x0000000000000000       0x39 build/obj/chmempools.o
 .debug_frame   0x0000000000000000       0x6c build/obj/chmempools.o
 .ARM.attributes
                0x0000000000000000       0x33 build/obj/chmempools.o
 .text          0x0000000000000000        0x0 build/obj/test.o
 .data          0x0000000000000000        0x0 build/obj/test.o
 .bss           0x0000000000000000        0x0 build/obj/test.o
 .text.tmr      0x0000000000000000        0xc build/obj/test.o
 .text.print_line
                0x0000000000000000       0x40 build/obj/test.o
 .text.test_printn
                0x0000000000000000       0x64 build/obj/test.o
 .text.test_print
                0x0000000000000000       0x24 build/obj/test.o
 .text.test_println
                0x0000000000000000       0x44 build/obj/test.o
 .text.test_emit_token
                0x0000000000000000       0x24 build/obj/test.o
 .text._test_fail
                0x0000000000000000       0x24 build/obj/test.o
 .text._test_assert
                0x0000000000000000       0x2c build/obj/test.o
 .text._test_assert_sequence
                0x0000000000000000       0x50 build/obj/test.o
 .text._test_assert_time_window
                0x0000000000000000       0x30 build/obj/test.o
 .text.test_terminate_threads
                0x0000000000000000       0x1c build/obj/test.o
 .text.test_wait_threads
                0x0000000000000000       0x24 build/obj/test.o
 .text.test_cpu_pulse
                0x0000000000000000       0x50 build/obj/test.o
 .text.test_wait_tick
                0x0000000000000000       0x14 build/obj/test.o
 .text.test_start_timer
                0x0000000000000000       0x48 build/obj/test.o
 .text.TestThread
                0x0000000000000000      0x36c build/obj/test.o
 .bss.test      0x0000000000000000      0x5f0 build/obj/test.o
 .bss.failpoint
                0x0000000000000000        0x4 build/obj/test.o
 .bss.local_fail
                0x0000000000000000        0x4 build/obj/test.o
 .bss.test_timer_done
                0x0000000000000000        0x4 build/obj/test.o
 .rodata.wa     0x0000000000000000       0x14 build/obj/test.o
 .bss.tokp      0x0000000000000000        0x4 build/obj/test.o
 .bss.global_fail
                0x0000000000000000        0x4 build/obj/test.o
 .rodata.str1.4
                0x0000000000000000      0x1bd build/obj/test.o
 .bss.vt        0x0000000000000000       0x14 build/obj/test.o
 .bss.threads   0x0000000000000000       0x14 build/obj/test.o
 .rodata.patterns
                0x0000000000000000       0x30 build/obj/test.o
 .bss.chp       0x0000000000000000        0x4 build/obj/test.o
 .bss.tokens_buffer
                0x0000000000000000       0x10 build/obj/test.o
 .debug_info    0x0000000000000000     0x1494 build/obj/test.o
 .debug_abbrev  0x0000000000000000      0x4fc build/obj/test.o
 .debug_loc     0x0000000000000000      0x853 build/obj/test.o
 .debug_aranges
                0x0000000000000000       0x98 build/obj/test.o
 .debug_ranges  0x0000000000000000      0x130 build/obj/test.o
 .debug_line    0x0000000000000000      0x508 build/obj/test.o
 .debug_str     0x0000000000000000      0x6f0 build/obj/test.o
 .comment       0x0000000000000000       0x39 build/obj/test.o
 .debug_frame   0x0000000000000000      0x250 build/obj/test.o
 .ARM.attributes
                0x0000000000000000       0x33 build/obj/test.o
 .text          0x0000000000000000        0x0 build/obj/testthd.o
 .data          0x0000000000000000        0x0 build/obj/testthd.o
 .bss           0x0000000000000000        0x0 build/obj/testthd.o
 .text.thd1_execute
                0x0000000000000000       0xc8 build/obj/testthd.o
 .text.thread   0x0000000000000000        0xc build/obj/testthd.o
 .text.thd2_execute
                0x0000000000000000       0xd8 build/obj/testthd.o
 .text.thd3_execute
                0x0000000000000000      0x130 build/obj/testthd.o
 .text.thd4_execute
                0x0000000000000000       0x78 build/obj/testthd.o
 .rodata.testthd1
                0x0000000000000000       0x10 build/obj/testthd.o
 .rodata.testthd2
                0x0000000000000000       0x10 build/obj/testthd.o
 .rodata.testthd3
                0x0000000000000000       0x10 build/obj/testthd.o
 .rodata.testthd4
                0x0000000000000000       0x10 build/obj/testthd.o
 .rodata.patternthd
                0x0000000000000000       0x14 build/obj/testthd.o
 .rodata.str1.4
                0x0000000000000000       0x7f build/obj/testthd.o
 .debug_info    0x0000000000000000      0xc6e build/obj/testthd.o
 .debug_abbrev  0x0000000000000000      0x29f build/obj/testthd.o
 .debug_loc     0x0000000000000000       0xb2 build/obj/testthd.o
 .debug_aranges
                0x0000000000000000       0x40 build/obj/testthd.o
 .debug_ranges  0x0000000000000000       0xa8 build/obj/testthd.o
 .debug_line    0x0000000000000000      0x234 build/obj/testthd.o
 .debug_str     0x0000000000000000      0x553 build/obj/testthd.o
 .comment       0x0000000000000000       0x39 build/obj/testthd.o
 .debug_frame   0x0000000000000000       0xf0 build/obj/testthd.o
 .ARM.attributes
                0x0000000000000000       0x33 build/obj/testthd.o
 .text          0x0000000000000000        0x0 build/obj/testsem.o
 .data          0x0000000000000000        0x0 build/obj/testsem.o
 .bss           0x0000000000000000        0x0 build/obj/testsem.o
 .text.sem1_execute
                0x0000000000000000      0x140 build/obj/testsem.o
 .text.thread3  0x0000000000000000       0x18 build/obj/testsem.o
 .text.thread1  0x0000000000000000       0x18 build/obj/testsem.o
 .text.sem1_setup
                0x0000000000000000        0xc build/obj/testsem.o
 .text.sem2_setup
                0x0000000000000000        0xc build/obj/testsem.o
 .text.sem3_setup
                0x0000000000000000        0xc build/obj/testsem.o
 .text.thread2  0x0000000000000000       0x28 build/obj/testsem.o
 .text.thread4  0x0000000000000000       0x24 build/obj/testsem.o
 .text.sem4_execute
                0x0000000000000000      0x104 build/obj/testsem.o
 .text.sem2_execute
                0x0000000000000000      0x148 build/obj/testsem.o
 .text.sem3_execute
                0x0000000000000000       0x98 build/obj/testsem.o
 .rodata.testsem1
                0x0000000000000000       0x10 build/obj/testsem.o
 .rodata.testsem2
                0x0000000000000000       0x10 build/obj/testsem.o
 .rodata.testsem3
                0x0000000000000000       0x10 build/obj/testsem.o
 .rodata.testsem4
                0x0000000000000000       0x10 build/obj/testsem.o
 .data.sem1     0x0000000000000000        0xc build/obj/testsem.o
 .rodata.patternsem
                0x0000000000000000       0x14 build/obj/testsem.o
 .rodata.str1.4
                0x0000000000000000       0x8a build/obj/testsem.o
 .debug_info    0x0000000000000000     0x103f build/obj/testsem.o
 .debug_abbrev  0x0000000000000000      0x336 build/obj/testsem.o
 .debug_loc     0x0000000000000000      0x107 build/obj/testsem.o
 .debug_aranges
                0x0000000000000000       0x70 build/obj/testsem.o
 .debug_ranges  0x0000000000000000       0x90 build/obj/testsem.o
 .debug_line    0x0000000000000000      0x2fe build/obj/testsem.o
 .debug_str     0x0000000000000000      0x609 build/obj/testsem.o
 .comment       0x0000000000000000       0x39 build/obj/testsem.o
 .debug_frame   0x0000000000000000      0x180 build/obj/testsem.o
 .ARM.attributes
                0x0000000000000000       0x33 build/obj/testsem.o
 .text          0x0000000000000000        0x0 build/obj/testmtx.o
 .data          0x0000000000000000        0x0 build/obj/testmtx.o
 .bss           0x0000000000000000        0x0 build/obj/testmtx.o
 .text.mtx1_execute
                0x0000000000000000       0xdc build/obj/testmtx.o
 .text.thread1  0x0000000000000000       0x1c build/obj/testmtx.o
 .text.thread12
                0x0000000000000000       0x1c build/obj/testmtx.o
 .text.mtx1_setup
                0x0000000000000000        0xc build/obj/testmtx.o
 .text.mtx2_setup
                0x0000000000000000        0xc build/obj/testmtx.o
 .text.mtx3_setup
                0x0000000000000000       0x1c build/obj/testmtx.o
 .text.mtx4_setup
                0x0000000000000000       0x1c build/obj/testmtx.o
 .text.mtx5_setup
                0x0000000000000000        0xc build/obj/testmtx.o
 .text.mtx2_execute
                0x0000000000000000       0xa8 build/obj/testmtx.o
 .text.mtx3_execute
                0x0000000000000000       0xe0 build/obj/testmtx.o
 .text.thread2L
                0x0000000000000000       0x28 build/obj/testmtx.o
 .text.thread3LL
                0x0000000000000000       0x20 build/obj/testmtx.o
 .text.thread2M
                0x0000000000000000       0x18 build/obj/testmtx.o
 .text.thread2H
                0x0000000000000000       0x28 build/obj/testmtx.o
 .text.thread3HH
                0x0000000000000000       0x28 build/obj/testmtx.o
 .text.thread3H
                0x0000000000000000       0x18 build/obj/testmtx.o
 .text.thread3M
                0x0000000000000000       0x28 build/obj/testmtx.o
 .text.thread3L
                0x0000000000000000       0x40 build/obj/testmtx.o
 .text.thread4b
                0x0000000000000000       0x1c build/obj/testmtx.o
 .text.thread4a
                0x0000000000000000       0x1c build/obj/testmtx.o
 .text.mtx4_execute
                0x0000000000000000      0x258 build/obj/testmtx.o
 .text.mtx5_execute
                0x0000000000000000       0xb8 build/obj/testmtx.o
 .text.mtx6_execute
                0x0000000000000000       0xec build/obj/testmtx.o
 .text.thread10
                0x0000000000000000       0x28 build/obj/testmtx.o
 .text.mtx6_setup
                0x0000000000000000       0x1c build/obj/testmtx.o
 .text.mtx7_setup
                0x0000000000000000       0x1c build/obj/testmtx.o
 .text.mtx8_setup
                0x0000000000000000       0x24 build/obj/testmtx.o
 .text.mtx7_execute
                0x0000000000000000       0xc0 build/obj/testmtx.o
 .text.mtx8_execute
                0x0000000000000000       0x9c build/obj/testmtx.o
 .text.thread11
                0x0000000000000000       0x38 build/obj/testmtx.o
 .rodata.testmtx5
                0x0000000000000000       0x10 build/obj/testmtx.o
 .rodata.testmtx6
                0x0000000000000000       0x10 build/obj/testmtx.o
 .rodata.testmtx7
                0x0000000000000000       0x10 build/obj/testmtx.o
 .rodata.testmtx8
                0x0000000000000000       0x10 build/obj/testmtx.o
 .data.m1       0x0000000000000000       0x10 build/obj/testmtx.o
 .data.m2       0x0000000000000000       0x10 build/obj/testmtx.o
 .rodata.str1.4
                0x0000000000000000      0x109 build/obj/testmtx.o
 .rodata.patternmtx
                0x0000000000000000       0x24 build/obj/testmtx.o
 .data.c1       0x0000000000000000        0x8 build/obj/testmtx.o
 .rodata.testmtx1
                0x0000000000000000       0x10 build/obj/testmtx.o
 .rodata.testmtx2
                0x0000000000000000       0x10 build/obj/testmtx.o
 .rodata.testmtx3
                0x0000000000000000       0x10 build/obj/testmtx.o
 .rodata.testmtx4
                0x0000000000000000       0x10 build/obj/testmtx.o
 .debug_info    0x0000000000000000     0x1ce1 build/obj/testmtx.o
 .debug_abbrev  0x0000000000000000      0x2f7 build/obj/testmtx.o
 .debug_loc     0x0000000000000000      0x2fd build/obj/testmtx.o
 .debug_aranges
                0x0000000000000000      0x108 build/obj/testmtx.o
 .debug_ranges  0x0000000000000000      0x110 build/obj/testmtx.o
 .debug_line    0x0000000000000000      0x4c0 build/obj/testmtx.o
 .debug_str     0x0000000000000000      0x70d build/obj/testmtx.o
 .comment       0x0000000000000000       0x39 build/obj/testmtx.o
 .debug_frame   0x0000000000000000      0x450 build/obj/testmtx.o
 .ARM.attributes
                0x0000000000000000       0x33 build/obj/testmtx.o
 .text          0x0000000000000000        0x0 build/obj/testmsg.o
 .data          0x0000000000000000        0x0 build/obj/testmsg.o
 .bss           0x0000000000000000        0x0 build/obj/testmsg.o
 .text.msg1_execute
                0x0000000000000000       0x78 build/obj/testmsg.o
 .text.thread   0x0000000000000000       0x20 build/obj/testmsg.o
 .rodata.testmsg1
                0x0000000000000000       0x10 build/obj/testmsg.o
 .rodata.str1.4
                0x0000000000000000       0x13 build/obj/testmsg.o
 .rodata.patternmsg
                0x0000000000000000        0x8 build/obj/testmsg.o
 .debug_info    0x0000000000000000      0x6fb build/obj/testmsg.o
 .debug_abbrev  0x0000000000000000      0x21a build/obj/testmsg.o
 .debug_loc     0x0000000000000000       0x5a build/obj/testmsg.o
 .debug_aranges
                0x0000000000000000       0x28 build/obj/testmsg.o
 .debug_ranges  0x0000000000000000       0x18 build/obj/testmsg.o
 .debug_line    0x0000000000000000      0x1c2 build/obj/testmsg.o
 .debug_str     0x0000000000000000      0x446 build/obj/testmsg.o
 .comment       0x0000000000000000       0x39 build/obj/testmsg.o
 .debug_frame   0x0000000000000000       0x54 build/obj/testmsg.o
 .ARM.attributes
                0x0000000000000000       0x33 build/obj/testmsg.o
 .text          0x0000000000000000        0x0 build/obj/testmbox.o
 .data          0x0000000000000000        0x0 build/obj/testmbox.o
 .bss           0x0000000000000000        0x0 build/obj/testmbox.o
 .text.mbox1_execute
                0x0000000000000000      0x5dc build/obj/testmbox.o
 .text.mbox1_setup
                0x0000000000000000       0x14 build/obj/testmbox.o
 .data.mb1      0x0000000000000000       0x28 build/obj/testmbox.o
 .rodata.patternmbox
                0x0000000000000000        0x8 build/obj/testmbox.o
 .rodata.str1.4
                0x0000000000000000       0x28 build/obj/testmbox.o
 .rodata.testmbox1
                0x0000000000000000       0x10 build/obj/testmbox.o
 .debug_info    0x0000000000000000     0x1362 build/obj/testmbox.o
 .debug_abbrev  0x0000000000000000      0x228 build/obj/testmbox.o
 .debug_loc     0x0000000000000000      0x1f2 build/obj/testmbox.o
 .debug_aranges
                0x0000000000000000       0x28 build/obj/testmbox.o
 .debug_ranges  0x0000000000000000       0x60 build/obj/testmbox.o
 .debug_line    0x0000000000000000      0x28c build/obj/testmbox.o
 .debug_str     0x0000000000000000      0x4bd build/obj/testmbox.o
 .comment       0x0000000000000000       0x39 build/obj/testmbox.o
 .debug_frame   0x0000000000000000       0x4c build/obj/testmbox.o
 .ARM.attributes
                0x0000000000000000       0x33 build/obj/testmbox.o
 .text          0x0000000000000000        0x0 build/obj/testevt.o
 .data          0x0000000000000000        0x0 build/obj/testevt.o
 .bss           0x0000000000000000        0x0 build/obj/testevt.o
 .text.evt1_execute
                0x0000000000000000       0x84 build/obj/testevt.o
 .text.h3       0x0000000000000000        0x8 build/obj/testevt.o
 .text.h2       0x0000000000000000        0x8 build/obj/testevt.o
 .text.h1       0x0000000000000000        0x8 build/obj/testevt.o
 .text.evt1_setup
                0x0000000000000000        0x8 build/obj/testevt.o
 .text.evt2_setup
                0x0000000000000000        0x8 build/obj/testevt.o
 .text.evt3_setup
                0x0000000000000000        0x8 build/obj/testevt.o
 .text.evt2_execute
                0x0000000000000000      0x248 build/obj/testevt.o
 .text.thread2  0x0000000000000000       0x24 build/obj/testevt.o
 .text.thread1  0x0000000000000000       0x18 build/obj/testevt.o
 .text.evt3_execute
                0x0000000000000000       0xa0 build/obj/testevt.o
 .rodata.patternevt
                0x0000000000000000       0x10 build/obj/testevt.o
 .rodata.testevt2
                0x0000000000000000       0x10 build/obj/testevt.o
 .rodata.str1.4
                0x0000000000000000       0x5a build/obj/testevt.o
 .rodata.testevt1
                0x0000000000000000       0x10 build/obj/testevt.o
 .rodata.evhndl
                0x0000000000000000        0xc build/obj/testevt.o
 .rodata.testevt3
                0x0000000000000000       0x10 build/obj/testevt.o
 .data.es1      0x0000000000000000        0x4 build/obj/testevt.o
 .data.es2      0x0000000000000000        0x4 build/obj/testevt.o
 .debug_info    0x0000000000000000     0x1081 build/obj/testevt.o
 .debug_abbrev  0x0000000000000000      0x2f7 build/obj/testevt.o
 .debug_loc     0x0000000000000000      0x204 build/obj/testevt.o
 .debug_aranges
                0x0000000000000000       0x70 build/obj/testevt.o
 .debug_ranges  0x0000000000000000       0x78 build/obj/testevt.o
 .debug_line    0x0000000000000000      0x2bb build/obj/testevt.o
 .debug_str     0x0000000000000000      0x660 build/obj/testevt.o
 .comment       0x0000000000000000       0x39 build/obj/testevt.o
 .debug_frame   0x0000000000000000      0x120 build/obj/testevt.o
 .ARM.attributes
                0x0000000000000000       0x33 build/obj/testevt.o
 .text          0x0000000000000000        0x0 build/obj/testheap.o
 .data          0x0000000000000000        0x0 build/obj/testheap.o
 .bss           0x0000000000000000        0x0 build/obj/testheap.o
 .text.heap1_execute
                0x0000000000000000      0x244 build/obj/testheap.o
 .text.heap1_setup
                0x0000000000000000       0x14 build/obj/testheap.o
 .rodata.patternheap
                0x0000000000000000        0x8 build/obj/testheap.o
 .rodata.str1.4
                0x0000000000000000       0x28 build/obj/testheap.o
 .rodata.testheap1
                0x0000000000000000       0x10 build/obj/testheap.o
 .bss.test_heap
                0x0000000000000000       0x20 build/obj/testheap.o
 .debug_info    0x0000000000000000      0xbe1 build/obj/testheap.o
 .debug_abbrev  0x0000000000000000      0x232 build/obj/testheap.o
 .debug_loc     0x0000000000000000      0x157 build/obj/testheap.o
 .debug_aranges
                0x0000000000000000       0x28 build/obj/testheap.o
 .debug_ranges  0x0000000000000000       0x18 build/obj/testheap.o
 .debug_line    0x0000000000000000      0x1fe build/obj/testheap.o
 .debug_str     0x0000000000000000      0x47f build/obj/testheap.o
 .comment       0x0000000000000000       0x39 build/obj/testheap.o
 .debug_frame   0x0000000000000000       0x4c build/obj/testheap.o
 .ARM.attributes
                0x0000000000000000       0x33 build/obj/testheap.o
 .text          0x0000000000000000        0x0 build/obj/testpools.o
 .data          0x0000000000000000        0x0 build/obj/testpools.o
 .bss           0x0000000000000000        0x0 build/obj/testpools.o
 .text.null_provider
                0x0000000000000000        0x4 build/obj/testpools.o
 .text.pools1_setup
                0x0000000000000000       0x10 build/obj/testpools.o
 .text.pools1_execute
                0x0000000000000000       0x74 build/obj/testpools.o
 .rodata.str1.4
                0x0000000000000000       0x1c build/obj/testpools.o
 .rodata.patternpools
                0x0000000000000000        0x8 build/obj/testpools.o
 .data.mp1      0x0000000000000000        0xc build/obj/testpools.o
 .rodata.testpools1
                0x0000000000000000       0x10 build/obj/testpools.o
 .debug_info    0x0000000000000000      0x38f build/obj/testpools.o
 .debug_abbrev  0x0000000000000000      0x1cf build/obj/testpools.o
 .debug_loc     0x0000000000000000       0x71 build/obj/testpools.o
 .debug_aranges
                0x0000000000000000       0x30 build/obj/testpools.o
 .debug_ranges  0x0000000000000000       0x38 build/obj/testpools.o
 .debug_line    0x0000000000000000      0x1a3 build/obj/testpools.o
 .debug_str     0x0000000000000000      0x2c4 build/obj/testpools.o
 .comment       0x0000000000000000       0x39 build/obj/testpools.o
 .debug_frame   0x0000000000000000       0x5c build/obj/testpools.o
 .ARM.attributes
                0x0000000000000000       0x33 build/obj/testpools.o
 .text          0x0000000000000000        0x0 build/obj/testdyn.o
 .data          0x0000000000000000        0x0 build/obj/testdyn.o
 .bss           0x0000000000000000        0x0 build/obj/testdyn.o
 .text.dyn1_execute
                0x0000000000000000       0xf4 build/obj/testdyn.o
 .text.thread   0x0000000000000000        0xc build/obj/testdyn.o
 .text.dyn1_setup
                0x0000000000000000       0x14 build/obj/testdyn.o
 .text.dyn3_setup
                0x0000000000000000       0x14 build/obj/testdyn.o
 .text.dyn2_execute
                0x0000000000000000       0xf4 build/obj/testdyn.o
 .text.dyn2_setup
                0x0000000000000000       0x10 build/obj/testdyn.o
 .text.regfind  0x0000000000000000       0x24 build/obj/testdyn.o
 .text.dyn3_execute
                0x0000000000000000      0x130 build/obj/testdyn.o
 .rodata.testdyn1
                0x0000000000000000       0x10 build/obj/testdyn.o
 .rodata.testdyn2
                0x0000000000000000       0x10 build/obj/testdyn.o
 .rodata.testdyn3
                0x0000000000000000       0x10 build/obj/testdyn.o
 .bss.mp1       0x0000000000000000        0xc build/obj/testdyn.o
 .rodata.str1.4
                0x0000000000000000       0xa1 build/obj/testdyn.o
 .rodata.patterndyn
                0x0000000000000000       0x10 build/obj/testdyn.o
 .bss.heap1     0x0000000000000000       0x20 build/obj/testdyn.o
 .debug_info    0x0000000000000000      0xf65 build/obj/testdyn.o
 .debug_abbrev  0x0000000000000000      0x2af build/obj/testdyn.o
 .debug_loc     0x0000000000000000      0x117 build/obj/testdyn.o
 .debug_aranges
                0x0000000000000000       0x58 build/obj/testdyn.o
 .debug_ranges  0x0000000000000000       0x48 build/obj/testdyn.o
 .debug_line    0x0000000000000000      0x301 build/obj/testdyn.o
 .debug_str     0x0000000000000000      0x633 build/obj/testdyn.o
 .comment       0x0000000000000000       0x39 build/obj/testdyn.o
 .debug_frame   0x0000000000000000      0x104 build/obj/testdyn.o
 .ARM.attributes
                0x0000000000000000       0x33 build/obj/testdyn.o
 .text          0x0000000000000000        0x0 build/obj/testqueues.o
 .data          0x0000000000000000        0x0 build/obj/testqueues.o
 .bss           0x0000000000000000        0x0 build/obj/testqueues.o
 .text.notify   0x0000000000000000        0x4 build/obj/testqueues.o
 .text.thread1  0x0000000000000000       0x14 build/obj/testqueues.o
 .text.queues1_setup
                0x0000000000000000       0x1c build/obj/testqueues.o
 .text.thread2  0x0000000000000000       0x14 build/obj/testqueues.o
 .text.queues2_setup
                0x0000000000000000       0x1c build/obj/testqueues.o
 .text.queues1_execute
                0x0000000000000000      0x280 build/obj/testqueues.o
 .text.queues2_execute
                0x0000000000000000      0x25c build/obj/testqueues.o
 .rodata.testqueues1
                0x0000000000000000       0x10 build/obj/testqueues.o
 .rodata.testqueues2
                0x0000000000000000       0x10 build/obj/testqueues.o
 .rodata.str1.4
                0x0000000000000000       0x35 build/obj/testqueues.o
 .rodata.patternqueues
                0x0000000000000000        0xc build/obj/testqueues.o
 .data.oq       0x0000000000000000       0x20 build/obj/testqueues.o
 .data.iq       0x0000000000000000       0x20 build/obj/testqueues.o
 .debug_info    0x0000000000000000     0x16c6 build/obj/testqueues.o
 .debug_abbrev  0x0000000000000000      0x2eb build/obj/testqueues.o
 .debug_loc     0x0000000000000000      0x1af build/obj/testqueues.o
 .debug_aranges
                0x0000000000000000       0x50 build/obj/testqueues.o
 .debug_ranges  0x0000000000000000      0x120 build/obj/testqueues.o
 .debug_line    0x0000000000000000      0x28d build/obj/testqueues.o
 .debug_str     0x0000000000000000      0x5b3 build/obj/testqueues.o
 .comment       0x0000000000000000       0x39 build/obj/testqueues.o
 .debug_frame   0x0000000000000000      0x100 build/obj/testqueues.o
 .ARM.attributes
                0x0000000000000000       0x33 build/obj/testqueues.o
 .text          0x0000000000000000        0x0 build/obj/testbmk.o
 .data          0x0000000000000000        0x0 build/obj/testbmk.o
 .bss           0x0000000000000000        0x0 build/obj/testbmk.o
 .text.thread2  0x0000000000000000        0x4 build/obj/testbmk.o
 .text.tmo      0x0000000000000000        0x4 build/obj/testbmk.o
 .text.bmk13_execute
                0x0000000000000000       0xec build/obj/testbmk.o
 .text.thread1  0x0000000000000000       0x18 build/obj/testbmk.o
 .text.bmk6_execute
                0x0000000000000000       0x70 build/obj/testbmk.o
 .text.msg_loop_test
                0x0000000000000000       0x34 build/obj/testbmk.o
 .text.bmk1_execute
                0x0000000000000000       0x6c build/obj/testbmk.o
 .text.bmk2_execute
                0x0000000000000000       0x6c build/obj/testbmk.o
 .text.bmk3_execute
                0x0000000000000000       0xd8 build/obj/testbmk.o
 .text.thread4  0x0000000000000000       0x28 build/obj/testbmk.o
 .text.bmk4_execute
                0x0000000000000000       0xb4 build/obj/testbmk.o
 .text.bmk5_execute
                0x0000000000000000       0x74 build/obj/testbmk.o
 .text.bmk7_execute
                0x0000000000000000       0xfc build/obj/testbmk.o
 .text.thread3  0x0000000000000000       0x28 build/obj/testbmk.o
 .text.bmk7_setup
                0x0000000000000000        0xc build/obj/testbmk.o
 .text.bmk11_setup
                0x0000000000000000        0xc build/obj/testbmk.o
 .text.bmk8_execute
                0x0000000000000000       0xdc build/obj/testbmk.o
 .text.thread8  0x0000000000000000       0x2c build/obj/testbmk.o
 .text.bmk9_execute
                0x0000000000000000       0xa4 build/obj/testbmk.o
 .text.bmk10_execute
                0x0000000000000000       0x7c build/obj/testbmk.o
 .text.bmk11_execute
                0x0000000000000000       0x70 build/obj/testbmk.o
 .text.bmk12_execute
                0x0000000000000000       0x68 build/obj/testbmk.o
 .text.bmk12_setup
                0x0000000000000000        0xc build/obj/testbmk.o
 .bss.vt1.4997  0x0000000000000000       0x14 build/obj/testbmk.o
 .rodata.patternbmk
                0x0000000000000000       0x38 build/obj/testbmk.o
 .rodata.testbmk8
                0x0000000000000000       0x10 build/obj/testbmk.o
 .rodata.testbmk3
                0x0000000000000000       0x10 build/obj/testbmk.o
 .rodata.testbmk10
                0x0000000000000000       0x10 build/obj/testbmk.o
 .bss.iq.4985   0x0000000000000000       0x20 build/obj/testbmk.o
 .rodata.testbmk4
                0x0000000000000000       0x10 build/obj/testbmk.o
 .bss.mtx1      0x0000000000000000       0x10 build/obj/testbmk.o
 .rodata.testbmk12
                0x0000000000000000       0x10 build/obj/testbmk.o
 .bss.ib.4984   0x0000000000000000       0x10 build/obj/testbmk.o
 .rodata.testbmk2
                0x0000000000000000       0x10 build/obj/testbmk.o
 .rodata.str1.4
                0x0000000000000000      0x2c7 build/obj/testbmk.o
 .rodata.testbmk9
                0x0000000000000000       0x10 build/obj/testbmk.o
 .bss.sem1      0x0000000000000000        0xc build/obj/testbmk.o
 .rodata.testbmk1
                0x0000000000000000       0x10 build/obj/testbmk.o
 .rodata.testbmk11
                0x0000000000000000       0x10 build/obj/testbmk.o
 .bss.vt2.4998  0x0000000000000000       0x14 build/obj/testbmk.o
 .rodata.testbmk13
                0x0000000000000000       0x10 build/obj/testbmk.o
 .rodata.testbmk5
                0x0000000000000000       0x10 build/obj/testbmk.o
 .rodata.testbmk6
                0x0000000000000000       0x10 build/obj/testbmk.o
 .rodata.testbmk7
                0x0000000000000000       0x10 build/obj/testbmk.o
 .debug_info    0x0000000000000000     0x1dc6 build/obj/testbmk.o
 .debug_abbrev  0x0000000000000000      0x368 build/obj/testbmk.o
 .debug_loc     0x0000000000000000      0x2db build/obj/testbmk.o
 .debug_aranges
                0x0000000000000000       0xd0 build/obj/testbmk.o
 .debug_ranges  0x0000000000000000       0xd8 build/obj/testbmk.o
 .debug_line    0x0000000000000000      0x5ae build/obj/testbmk.o
 .debug_str     0x0000000000000000      0x787 build/obj/testbmk.o
 .comment       0x0000000000000000       0x39 build/obj/testbmk.o
 .debug_frame   0x0000000000000000      0x364 build/obj/testbmk.o
 .ARM.attributes
                0x0000000000000000       0x33 build/obj/testbmk.o
 .text          0x0000000000000000        0x0 build/obj/hal.o
 .data          0x0000000000000000        0x0 build/obj/hal.o
 .bss           0x0000000000000000        0x0 build/obj/hal.o
 .text          0x0000000000000000        0x0 build/obj/pal.o
 .data          0x0000000000000000        0x0 build/obj/pal.o
 .bss           0x0000000000000000        0x0 build/obj/pal.o
 .text.palReadBus
                0x0000000000000000       0x10 build/obj/pal.o
 .text.palWriteBus
                0x0000000000000000       0x1c build/obj/pal.o
 .text.palSetBusMode
                0x0000000000000000       0x10 build/obj/pal.o
 .debug_info    0x0000000000000000      0x67e build/obj/pal.o
 .debug_abbrev  0x0000000000000000      0x15a build/obj/pal.o
 .debug_loc     0x0000000000000000       0x8f build/obj/pal.o
 .debug_aranges
                0x0000000000000000       0x30 build/obj/pal.o
 .debug_ranges  0x0000000000000000       0x20 build/obj/pal.o
 .debug_line    0x0000000000000000      0x1b7 build/obj/pal.o
 .debug_str     0x0000000000000000      0x544 build/obj/pal.o
 .comment       0x0000000000000000       0x39 build/obj/pal.o
 .debug_frame   0x0000000000000000       0x4c build/obj/pal.o
 .ARM.attributes
                0x0000000000000000       0x33 build/obj/pal.o
 .text          0x0000000000000000        0x0 build/obj/serial.o
 .data          0x0000000000000000        0x0 build/obj/serial.o
 .bss           0x0000000000000000        0x0 build/obj/serial.o
 .text.sdStop   0x0000000000000000       0x30 build/obj/serial.o
 .text.sdRequestDataI
                0x0000000000000000       0x28 build/obj/serial.o
 .text          0x0000000000000000        0x0 build/obj/hal_lld.o
 .data          0x0000000000000000        0x0 build/obj/hal_lld.o
 .bss           0x0000000000000000        0x0 build/obj/hal_lld.o
 .text          0x0000000000000000        0x0 build/obj/system_SAM3.o
 .data          0x0000000000000000        0x0 build/obj/system_SAM3.o
 .bss           0x0000000000000000        0x0 build/obj/system_SAM3.o
 .text          0x0000000000000000        0x0 build/obj/pal_lld.o
 .data          0x0000000000000000        0x0 build/obj/pal_lld.o
 .bss           0x0000000000000000        0x0 build/obj/pal_lld.o
 .text          0x0000000000000000        0x0 build/obj/serial_lld.o
 .data          0x0000000000000000        0x0 build/obj/serial_lld.o
 .bss           0x0000000000000000        0x0 build/obj/serial_lld.o
 .text.sd_lld_stop
                0x0000000000000000       0x80 build/obj/serial_lld.o
 .text          0x0000000000000000        0x0 build/obj/atmel_adc.o
 .data          0x0000000000000000        0x0 build/obj/atmel_adc.o
 .bss           0x0000000000000000        0x0 build/obj/atmel_adc.o
 .text.calcul_startup
                0x0000000000000000       0x8c build/obj/atmel_adc.o
 .text.ADC_Initialize
                0x0000000000000000       0x30 build/obj/atmel_adc.o
 .text.ADC_CfgTiming
                0x0000000000000000        0xc build/obj/atmel_adc.o
 .text.ADC_cfgFrequency
                0x0000000000000000       0x14 build/obj/atmel_adc.o
 .text.ADC_CfgTrigering
                0x0000000000000000       0x24 build/obj/atmel_adc.o
 .text.ADC_CfgLowRes
                0x0000000000000000       0x10 build/obj/atmel_adc.o
 .text.ADC_CfgPowerSave
                0x0000000000000000       0x18 build/obj/atmel_adc.o
 .text.ADC_CfgChannelMode
                0x0000000000000000        0xc build/obj/atmel_adc.o
 .text.ADC_check
                0x0000000000000000       0xf8 build/obj/atmel_adc.o
 .text.ADC_GetConvertedData
                0x0000000000000000       0x10 build/obj/atmel_adc.o
 .text.ADC_SetCompareChannel
                0x0000000000000000       0x44 build/obj/atmel_adc.o
 .text.ADC_SetCompareMode
                0x0000000000000000       0x14 build/obj/atmel_adc.o
 .text.ADC_SetComparisonWindow
                0x0000000000000000        0x4 build/obj/atmel_adc.o
 .text.ADC_IsInterruptMasked
                0x0000000000000000        0x8 build/obj/atmel_adc.o
 .text.ADC_IsStatusSet
                0x0000000000000000        0x8 build/obj/atmel_adc.o
 .text.ADC_IsChannelInterruptStatusSet
                0x0000000000000000       0x10 build/obj/atmel_adc.o
 .text.ADC_ReadBuffer
                0x0000000000000000       0x3c build/obj/atmel_adc.o
 .rodata.str1.4
                0x0000000000000000      0x134 build/obj/atmel_adc.o
 .rodata.__func__.6032
                0x0000000000000000       0x16 build/obj/atmel_adc.o
 .debug_info    0x0000000000000000     0x1334 build/obj/atmel_adc.o
 .debug_abbrev  0x0000000000000000      0x30f build/obj/atmel_adc.o
 .debug_loc     0x0000000000000000      0x5ac build/obj/atmel_adc.o
 .debug_aranges
                0x0000000000000000       0xa0 build/obj/atmel_adc.o
 .debug_ranges  0x0000000000000000       0x90 build/obj/atmel_adc.o
 .debug_line    0x0000000000000000      0x462 build/obj/atmel_adc.o
 .debug_str     0x0000000000000000      0xa12 build/obj/atmel_adc.o
 .comment       0x0000000000000000       0x39 build/obj/atmel_adc.o
 .debug_frame   0x0000000000000000      0x18c build/obj/atmel_adc.o
 .ARM.attributes
                0x0000000000000000       0x33 build/obj/atmel_adc.o
 .text          0x0000000000000000        0x0 build/obj/pio.o
 .data          0x0000000000000000        0x0 build/obj/pio.o
 .bss           0x0000000000000000        0x0 build/obj/pio.o
 .text.PIO_Set  0x0000000000000000        0x8 build/obj/pio.o
 .text.PIO_Clear
                0x0000000000000000        0x8 build/obj/pio.o
 .text.PIO_Get  0x0000000000000000       0x1c build/obj/pio.o
 .text.PIO_GetOutputDataStatus
                0x0000000000000000       0x10 build/obj/pio.o
 .text.PIO_SetDebounceFilter
                0x0000000000000000       0x20 build/obj/pio.o
 .text          0x0000000000000000        0x0 build/obj/pmc.o
 .data          0x0000000000000000        0x0 build/obj/pmc.o
 .bss           0x0000000000000000        0x0 build/obj/pmc.o
 .text.PMC_DisablePeripheral
                0x0000000000000000       0x50 build/obj/pmc.o
 .text.PMC_EnableAllPeripherals
                0x0000000000000000       0x30 build/obj/pmc.o
 .text.PMC_DisableAllPeripherals
                0x0000000000000000       0x2c build/obj/pmc.o
 .text.PMC_IsPeriphEnabled
                0x0000000000000000       0x44 build/obj/pmc.o
 .text.PmcMasterClockSelection
                0x0000000000000000       0x90 build/obj/pmc.o
 .text.ConfigurePck
                0x0000000000000000       0x2c build/obj/pmc.o
 .text.PmcMainClockSwitchMainOsc
                0x0000000000000000       0x20 build/obj/pmc.o
 .text.PmcConfigurePllClock
                0x0000000000000000       0x60 build/obj/pmc.o
 .rodata.__func__.4818
                0x0000000000000000       0x14 build/obj/pmc.o
 .rodata.__func__.4796
                0x0000000000000000       0x16 build/obj/pmc.o
 .text          0x0000000000000000        0x0 build/obj/atmel_twi.o
 .data          0x0000000000000000        0x0 build/obj/atmel_twi.o
 .bss           0x0000000000000000        0x0 build/obj/atmel_twi.o
 .text.TWI_ConfigureSlave
                0x0000000000000000       0x3c build/obj/atmel_twi.o
 .text.TWI_DisableIt
                0x0000000000000000       0x40 build/obj/atmel_twi.o
 .text.TWI_GetStatus
                0x0000000000000000       0x24 build/obj/atmel_twi.o
 .text.TWI_GetMaskedStatus
                0x0000000000000000       0x28 build/obj/atmel_twi.o
 .rodata.__func__.4911
                0x0000000000000000       0x14 build/obj/atmel_twi.o
 .rodata.__func__.4902
                0x0000000000000000        0xe build/obj/atmel_twi.o
 .rodata.__func__.4855
                0x0000000000000000       0x13 build/obj/atmel_twi.o
 .rodata.__func__.4906
                0x0000000000000000        0xe build/obj/atmel_twi.o
 .text          0x0000000000000000        0x0 build/obj/atmel_twid.o
 .data          0x0000000000000000        0x0 build/obj/atmel_twid.o
 .bss           0x0000000000000000        0x0 build/obj/atmel_twid.o
 .text.TWID_Handler
                0x0000000000000000       0xa8 build/obj/atmel_twid.o
 .text          0x0000000000000000        0x0 build/obj/atmel_spi.o
 .data          0x0000000000000000        0x0 build/obj/atmel_spi.o
 .bss           0x0000000000000000        0x0 build/obj/atmel_spi.o
 .text.SPI_Enable
                0x0000000000000000        0x8 build/obj/atmel_spi.o
 .text.SPI_Disable
                0x0000000000000000        0x8 build/obj/atmel_spi.o
 .text.SPI_EnableIt
                0x0000000000000000        0x4 build/obj/atmel_spi.o
 .text.SPI_DisableIt
                0x0000000000000000        0x4 build/obj/atmel_spi.o
 .text.SPI_Configure
                0x0000000000000000       0x1c build/obj/atmel_spi.o
 .text.SPI_ConfigureNPCS
                0x0000000000000000        0x8 build/obj/atmel_spi.o
 .text.SPI_GetStatus
                0x0000000000000000        0x4 build/obj/atmel_spi.o
 .text.SPI_Read
                0x0000000000000000        0xc build/obj/atmel_spi.o
 .text.SPI_Write
                0x0000000000000000       0x20 build/obj/atmel_spi.o
 .text.SPI_IsFinished
                0x0000000000000000        0x8 build/obj/atmel_spi.o
 .text.SPI_PdcEnableTx
                0x0000000000000000        0xc build/obj/atmel_spi.o
 .text.SPI_PdcDisableTx
                0x0000000000000000        0xc build/obj/atmel_spi.o
 .text.SPI_PdcEnableRx
                0x0000000000000000        0x8 build/obj/atmel_spi.o
 .text.SPI_PdcDisableRx
                0x0000000000000000        0x8 build/obj/atmel_spi.o
 .text.SPI_PdcSetTx
                0x0000000000000000       0x1c build/obj/atmel_spi.o
 .text.SPI_PdcSetRx
                0x0000000000000000       0x1c build/obj/atmel_spi.o
 .text.SPI_WriteBuffer
                0x0000000000000000       0x38 build/obj/atmel_spi.o
 .text.SPI_ReadBuffer
                0x0000000000000000       0x38 build/obj/atmel_spi.o
 .debug_info    0x0000000000000000      0x694 build/obj/atmel_spi.o
 .debug_abbrev  0x0000000000000000      0x1c3 build/obj/atmel_spi.o
 .debug_loc     0x0000000000000000      0x1bc build/obj/atmel_spi.o
 .debug_aranges
                0x0000000000000000       0xa8 build/obj/atmel_spi.o
 .debug_ranges  0x0000000000000000       0x98 build/obj/atmel_spi.o
 .debug_line    0x0000000000000000      0x239 build/obj/atmel_spi.o
 .debug_str     0x0000000000000000      0x480 build/obj/atmel_spi.o
 .comment       0x0000000000000000       0x39 build/obj/atmel_spi.o
 .debug_frame   0x0000000000000000      0x180 build/obj/atmel_spi.o
 .ARM.attributes
                0x0000000000000000       0x33 build/obj/atmel_spi.o
 .text          0x0000000000000000        0x0 build/obj/atmel_psram.o
 .data          0x0000000000000000        0x0 build/obj/atmel_psram.o
 .bss           0x0000000000000000        0x0 build/obj/atmel_psram.o
 .text          0x0000000000000000        0x0 build/obj/board.o
 .data          0x0000000000000000        0x0 build/obj/board.o
 .bss           0x0000000000000000        0x0 build/obj/board.o
 .text          0x0000000000000000        0x0 build/obj/evtimer.o
 .data          0x0000000000000000        0x0 build/obj/evtimer.o
 .bss           0x0000000000000000        0x0 build/obj/evtimer.o
 .text.tmrcb    0x0000000000000000       0x20 build/obj/evtimer.o
 .text.evtStart
                0x0000000000000000       0x2c build/obj/evtimer.o
 .text.evtStop  0x0000000000000000       0x18 build/obj/evtimer.o
 .debug_info    0x0000000000000000      0x640 build/obj/evtimer.o
 .debug_abbrev  0x0000000000000000      0x1a0 build/obj/evtimer.o
 .debug_loc     0x0000000000000000       0xb0 build/obj/evtimer.o
 .debug_aranges
                0x0000000000000000       0x30 build/obj/evtimer.o
 .debug_ranges  0x0000000000000000       0x38 build/obj/evtimer.o
 .debug_line    0x0000000000000000      0x19a build/obj/evtimer.o
 .debug_str     0x0000000000000000      0x414 build/obj/evtimer.o
 .comment       0x0000000000000000       0x39 build/obj/evtimer.o
 .debug_frame   0x0000000000000000       0x68 build/obj/evtimer.o
 .ARM.attributes
                0x0000000000000000       0x33 build/obj/evtimer.o
 .text          0x0000000000000000        0x0 build/obj/syscalls.o
 .data          0x0000000000000000        0x0 build/obj/syscalls.o
 .bss           0x0000000000000000        0x0 build/obj/syscalls.o
 .text          0x0000000000000000        0x0 build/obj/chprintf.o
 .data          0x0000000000000000        0x0 build/obj/chprintf.o
 .bss           0x0000000000000000        0x0 build/obj/chprintf.o
 .text.ltoa     0x0000000000000000       0x40 build/obj/chprintf.o
 .text.chprintf
                0x0000000000000000      0x378 build/obj/chprintf.o
 .rodata.str1.4
                0x0000000000000000        0x7 build/obj/chprintf.o
 .debug_info    0x0000000000000000      0x49d build/obj/chprintf.o
 .debug_abbrev  0x0000000000000000      0x192 build/obj/chprintf.o
 .debug_loc     0x0000000000000000      0x6f7 build/obj/chprintf.o
 .debug_aranges
                0x0000000000000000       0x28 build/obj/chprintf.o
 .debug_ranges  0x0000000000000000       0x18 build/obj/chprintf.o
 .debug_line    0x0000000000000000      0x279 build/obj/chprintf.o
 .debug_str     0x0000000000000000      0x2df build/obj/chprintf.o
 .comment       0x0000000000000000       0x39 build/obj/chprintf.o
 .debug_frame   0x0000000000000000       0x9c build/obj/chprintf.o
 .ARM.attributes
                0x0000000000000000       0x33 build/obj/chprintf.o
 .text          0x0000000000000000        0x0 build/obj/i2c.o
 .data          0x0000000000000000        0x0 build/obj/i2c.o
 .bss           0x0000000000000000        0x0 build/obj/i2c.o
 .ARM.extab.text._ZN7creator3I2C4InitEv
                0x0000000000000000        0x0 build/obj/i2c.o
 .ARM.extab.text._ZN7creator3I2C9WriteByteEhhh
                0x0000000000000000        0x0 build/obj/i2c.o
 .text._ZN7creator3I2C9WriteByteEhh
                0x0000000000000000       0x2c build/obj/i2c.o
 .ARM.extab.text._ZN7creator3I2C9WriteByteEhh
                0x0000000000000000        0x0 build/obj/i2c.o
 .ARM.exidx.text._ZN7creator3I2C9WriteByteEhh
                0x0000000000000000        0x8 build/obj/i2c.o
 .ARM.extab.text._ZN7creator3I2C8ReadByteEhh
                0x0000000000000000        0x0 build/obj/i2c.o
 .text._ZN7creator3I2C8ReadByteEh
                0x0000000000000000       0x30 build/obj/i2c.o
 .ARM.extab.text._ZN7creator3I2C8ReadByteEh
                0x0000000000000000        0x0 build/obj/i2c.o
 .ARM.exidx.text._ZN7creator3I2C8ReadByteEh
                0x0000000000000000        0x8 build/obj/i2c.o
 .ARM.extab.text._ZN7creator3I2C9ReadBytesEhhPhh
                0x0000000000000000        0x0 build/obj/i2c.o
 .text          0x0000000000000000        0x0 build/obj/hts221.o
 .data          0x0000000000000000        0x0 build/obj/hts221.o
 .bss           0x0000000000000000        0x0 build/obj/hts221.o
 .text._ZN7creator6HTS221C2EPNS_3I2CEh
                0x0000000000000000        0x8 build/obj/hts221.o
 .ARM.extab.text._ZN7creator6HTS221C2EPNS_3I2CEh
                0x0000000000000000        0x0 build/obj/hts221.o
 .ARM.exidx.text._ZN7creator6HTS221C2EPNS_3I2CEh
                0x0000000000000000        0x8 build/obj/hts221.o
 .text._ZN7creator6HTS2215BeginEv
                0x0000000000000000       0xf0 build/obj/hts221.o
 .ARM.extab.text._ZN7creator6HTS2215BeginEv
                0x0000000000000000        0x0 build/obj/hts221.o
 .ARM.exidx.text._ZN7creator6HTS2215BeginEv
                0x0000000000000000        0x8 build/obj/hts221.o
 .text._ZN7creator6HTS2217GetDataERfS1_
                0x0000000000000000      0x124 build/obj/hts221.o
 .ARM.extab.text._ZN7creator6HTS2217GetDataERfS1_
                0x0000000000000000        0x0 build/obj/hts221.o
 .ARM.exidx.text._ZN7creator6HTS2217GetDataERfS1_
                0x0000000000000000        0x8 build/obj/hts221.o
 .text._ZN7creator6HTS2214ReadEh
                0x0000000000000000        0xc build/obj/hts221.o
 .ARM.extab.text._ZN7creator6HTS2214ReadEh
                0x0000000000000000        0x0 build/obj/hts221.o
 .ARM.exidx.text._ZN7creator6HTS2214ReadEh
                0x0000000000000000        0x8 build/obj/hts221.o
 .text._ZN7creator6HTS2215WriteEhh
                0x0000000000000000       0x14 build/obj/hts221.o
 .ARM.extab.text._ZN7creator6HTS2215WriteEhh
                0x0000000000000000        0x0 build/obj/hts221.o
 .ARM.exidx.text._ZN7creator6HTS2215WriteEhh
                0x0000000000000000        0x8 build/obj/hts221.o
 .text._ZN7creator6HTS2214ReadEhPhh
                0x0000000000000000       0x1c build/obj/hts221.o
 .ARM.extab.text._ZN7creator6HTS2214ReadEhPhh
                0x0000000000000000        0x0 build/obj/hts221.o
 .ARM.exidx.text._ZN7creator6HTS2214ReadEhPhh
                0x0000000000000000        0x8 build/obj/hts221.o
 .debug_info    0x0000000000000000      0xb55 build/obj/hts221.o
 .debug_abbrev  0x0000000000000000      0x303 build/obj/hts221.o
 .debug_loc     0x0000000000000000      0x255 build/obj/hts221.o
 .debug_aranges
                0x0000000000000000       0x48 build/obj/hts221.o
 .debug_ranges  0x0000000000000000      0x168 build/obj/hts221.o
 .debug_line    0x0000000000000000      0x1bc build/obj/hts221.o
 .debug_str     0x0000000000000000      0x4f7 build/obj/hts221.o
 .comment       0x0000000000000000       0x39 build/obj/hts221.o
 .debug_frame   0x0000000000000000       0xc8 build/obj/hts221.o
 .ARM.attributes
                0x0000000000000000       0x33 build/obj/hts221.o
 .text          0x0000000000000000        0x0 build/obj/lsm9ds1.o
 .data          0x0000000000000000        0x0 build/obj/lsm9ds1.o
 .bss           0x0000000000000000        0x0 build/obj/lsm9ds1.o
 .text._ZN7LSM9DS19magOffsetEhs.part.0
                0x0000000000000000       0x38 build/obj/lsm9ds1.o
 .ARM.extab.text._ZN7LSM9DS19magOffsetEhs.part.0
                0x0000000000000000        0x0 build/obj/lsm9ds1.o
 .ARM.exidx.text._ZN7LSM9DS19magOffsetEhs.part.0
                0x0000000000000000        0x8 build/obj/lsm9ds1.o
 .ARM.extab.text._ZN7LSM9DS14initE14interface_modehh
                0x0000000000000000        0x0 build/obj/lsm9ds1.o
 .text._ZN7LSM9DS1C2EPN7creator3I2CE
                0x0000000000000000       0x18 build/obj/lsm9ds1.o
 .ARM.extab.text._ZN7LSM9DS1C2EPN7creator3I2CE
                0x0000000000000000        0x0 build/obj/lsm9ds1.o
 .ARM.exidx.text._ZN7LSM9DS1C2EPN7creator3I2CE
                0x0000000000000000        0x8 build/obj/lsm9ds1.o
 .ARM.extab.text._ZN7LSM9DS1C2EPN7creator3I2CE14interface_modehh
                0x0000000000000000        0x0 build/obj/lsm9ds1.o
 .ARM.extab.text._ZN7LSM9DS18initGyroEv
                0x0000000000000000        0x0 build/obj/lsm9ds1.o
 .ARM.extab.text._ZN7LSM9DS19initAccelEv
                0x0000000000000000        0x0 build/obj/lsm9ds1.o
 .text._ZN7LSM9DS19magOffsetEhs
                0x0000000000000000        0xc build/obj/lsm9ds1.o
 .ARM.extab.text._ZN7LSM9DS19magOffsetEhs
                0x0000000000000000        0x0 build/obj/lsm9ds1.o
 .ARM.exidx.text._ZN7LSM9DS19magOffsetEhs
                0x0000000000000000        0x8 build/obj/lsm9ds1.o
 .ARM.extab.text._ZN7LSM9DS17initMagEv
                0x0000000000000000        0x0 build/obj/lsm9ds1.o
 .text._ZN7LSM9DS114accelAvailableEv
                0x0000000000000000       0x18 build/obj/lsm9ds1.o
 .ARM.extab.text._ZN7LSM9DS114accelAvailableEv
                0x0000000000000000        0xc build/obj/lsm9ds1.o
 .ARM.exidx.text._ZN7LSM9DS114accelAvailableEv
                0x0000000000000000        0x8 build/obj/lsm9ds1.o
 .text._ZN7LSM9DS113gyroAvailableEv
                0x0000000000000000       0x18 build/obj/lsm9ds1.o
 .ARM.extab.text._ZN7LSM9DS113gyroAvailableEv
                0x0000000000000000        0xc build/obj/lsm9ds1.o
 .ARM.exidx.text._ZN7LSM9DS113gyroAvailableEv
                0x0000000000000000        0x8 build/obj/lsm9ds1.o
 .text._ZN7LSM9DS113tempAvailableEv
                0x0000000000000000       0x18 build/obj/lsm9ds1.o
 .ARM.extab.text._ZN7LSM9DS113tempAvailableEv
                0x0000000000000000        0xc build/obj/lsm9ds1.o
 .ARM.exidx.text._ZN7LSM9DS113tempAvailableEv
                0x0000000000000000        0x8 build/obj/lsm9ds1.o
 .text._ZN7LSM9DS112magAvailableE12lsm9ds1_axis
                0x0000000000000000       0x20 build/obj/lsm9ds1.o
 .ARM.extab.text._ZN7LSM9DS112magAvailableE12lsm9ds1_axis
                0x0000000000000000        0x0 build/obj/lsm9ds1.o
 .ARM.exidx.text._ZN7LSM9DS112magAvailableE12lsm9ds1_axis
                0x0000000000000000        0x8 build/obj/lsm9ds1.o
 .ARM.extab.text._ZN7LSM9DS19readAccelEv
                0x0000000000000000        0x0 build/obj/lsm9ds1.o
 .text._ZN7LSM9DS19readAccelE12lsm9ds1_axis
                0x0000000000000000       0x48 build/obj/lsm9ds1.o
 .ARM.extab.text._ZN7LSM9DS19readAccelE12lsm9ds1_axis
                0x0000000000000000        0x0 build/obj/lsm9ds1.o
 .ARM.exidx.text._ZN7LSM9DS19readAccelE12lsm9ds1_axis
                0x0000000000000000        0x8 build/obj/lsm9ds1.o
 .ARM.extab.text._ZN7LSM9DS17readMagEv
                0x0000000000000000        0x0 build/obj/lsm9ds1.o
 .text._ZN7LSM9DS112calibrateMagEb
                0x0000000000000000       0xcc build/obj/lsm9ds1.o
 .ARM.extab.text._ZN7LSM9DS112calibrateMagEb
                0x0000000000000000        0x0 build/obj/lsm9ds1.o
 .ARM.exidx.text._ZN7LSM9DS112calibrateMagEb
                0x0000000000000000        0x8 build/obj/lsm9ds1.o
 .text._ZN7LSM9DS17readMagE12lsm9ds1_axis
                0x0000000000000000       0x38 build/obj/lsm9ds1.o
 .ARM.extab.text._ZN7LSM9DS17readMagE12lsm9ds1_axis
                0x0000000000000000        0x0 build/obj/lsm9ds1.o
 .ARM.exidx.text._ZN7LSM9DS17readMagE12lsm9ds1_axis
                0x0000000000000000        0x8 build/obj/lsm9ds1.o
 .text._ZN7LSM9DS18readTempEv
                0x0000000000000000       0x2c build/obj/lsm9ds1.o
 .ARM.extab.text._ZN7LSM9DS18readTempEv
                0x0000000000000000        0x0 build/obj/lsm9ds1.o
 .ARM.exidx.text._ZN7LSM9DS18readTempEv
                0x0000000000000000        0x8 build/obj/lsm9ds1.o
 .ARM.extab.text._ZN7LSM9DS18readGyroEv
                0x0000000000000000        0x0 build/obj/lsm9ds1.o
 .text._ZN7LSM9DS18readGyroE12lsm9ds1_axis
                0x0000000000000000       0x48 build/obj/lsm9ds1.o
 .ARM.extab.text._ZN7LSM9DS18readGyroE12lsm9ds1_axis
                0x0000000000000000        0x0 build/obj/lsm9ds1.o
 .ARM.exidx.text._ZN7LSM9DS18readGyroE12lsm9ds1_axis
                0x0000000000000000        0x8 build/obj/lsm9ds1.o
 .ARM.extab.text._ZN7LSM9DS18calcGyroEs
                0x0000000000000000        0x0 build/obj/lsm9ds1.o
 .ARM.extab.text._ZN7LSM9DS19calcAccelEs
                0x0000000000000000        0x0 build/obj/lsm9ds1.o
 .ARM.extab.text._ZN7LSM9DS17calcMagEs
                0x0000000000000000        0x0 build/obj/lsm9ds1.o
 .text._ZN7LSM9DS112setGyroScaleEt
                0x0000000000000000       0x58 build/obj/lsm9ds1.o
 .ARM.extab.text._ZN7LSM9DS112setGyroScaleEt
                0x0000000000000000        0x0 build/obj/lsm9ds1.o
 .ARM.exidx.text._ZN7LSM9DS112setGyroScaleEt
                0x0000000000000000        0x8 build/obj/lsm9ds1.o
 .text._ZN7LSM9DS113setAccelScaleEh
                0x0000000000000000       0x60 build/obj/lsm9ds1.o
 .ARM.extab.text._ZN7LSM9DS113setAccelScaleEh
                0x0000000000000000        0x0 build/obj/lsm9ds1.o
 .ARM.exidx.text._ZN7LSM9DS113setAccelScaleEh
                0x0000000000000000        0x8 build/obj/lsm9ds1.o
 .text._ZN7LSM9DS110setGyroODREh
                0x0000000000000000       0x3c build/obj/lsm9ds1.o
 .ARM.extab.text._ZN7LSM9DS110setGyroODREh
                0x0000000000000000        0x0 build/obj/lsm9ds1.o
 .ARM.exidx.text._ZN7LSM9DS110setGyroODREh
                0x0000000000000000        0x8 build/obj/lsm9ds1.o
 .text._ZN7LSM9DS111setAccelODREh
                0x0000000000000000       0x3c build/obj/lsm9ds1.o
 .ARM.extab.text._ZN7LSM9DS111setAccelODREh
                0x0000000000000000        0x0 build/obj/lsm9ds1.o
 .ARM.exidx.text._ZN7LSM9DS111setAccelODREh
                0x0000000000000000        0x8 build/obj/lsm9ds1.o
 .text._ZN7LSM9DS19setMagODREh
                0x0000000000000000       0x38 build/obj/lsm9ds1.o
 .ARM.extab.text._ZN7LSM9DS19setMagODREh
                0x0000000000000000        0x0 build/obj/lsm9ds1.o
 .ARM.exidx.text._ZN7LSM9DS19setMagODREh
                0x0000000000000000        0x8 build/obj/lsm9ds1.o
 .text._ZN7LSM9DS18calcgResEv
                0x0000000000000000       0x18 build/obj/lsm9ds1.o
 .ARM.extab.text._ZN7LSM9DS18calcgResEv
                0x0000000000000000        0x0 build/obj/lsm9ds1.o
 .ARM.exidx.text._ZN7LSM9DS18calcgResEv
                0x0000000000000000        0x8 build/obj/lsm9ds1.o
 .text._ZN7LSM9DS18calcaResEv
                0x0000000000000000       0x18 build/obj/lsm9ds1.o
 .ARM.extab.text._ZN7LSM9DS18calcaResEv
                0x0000000000000000        0x0 build/obj/lsm9ds1.o
 .ARM.exidx.text._ZN7LSM9DS18calcaResEv
                0x0000000000000000        0x8 build/obj/lsm9ds1.o
 .ARM.extab.text._ZN7LSM9DS18calcmResEv
                0x0000000000000000        0x0 build/obj/lsm9ds1.o
 .text._ZN7LSM9DS111setMagScaleEh
                0x0000000000000000       0x60 build/obj/lsm9ds1.o
 .ARM.extab.text._ZN7LSM9DS111setMagScaleEh
                0x0000000000000000        0x0 build/obj/lsm9ds1.o
 .ARM.exidx.text._ZN7LSM9DS111setMagScaleEh
                0x0000000000000000        0x8 build/obj/lsm9ds1.o
 .text._ZN7LSM9DS19configIntE16interrupt_selecth9h_lactive5pp_od
                0x0000000000000000       0x58 build/obj/lsm9ds1.o
 .ARM.extab.text._ZN7LSM9DS19configIntE16interrupt_selecth9h_lactive5pp_od
                0x0000000000000000        0x0 build/obj/lsm9ds1.o
 .ARM.exidx.text._ZN7LSM9DS19configIntE16interrupt_selecth9h_lactive5pp_od
                0x0000000000000000        0x8 build/obj/lsm9ds1.o
 .text._ZN7LSM9DS116configInactivityEhhb
                0x0000000000000000       0x34 build/obj/lsm9ds1.o
 .ARM.extab.text._ZN7LSM9DS116configInactivityEhhb
                0x0000000000000000        0x0 build/obj/lsm9ds1.o
 .ARM.exidx.text._ZN7LSM9DS116configInactivityEhhb
                0x0000000000000000        0x8 build/obj/lsm9ds1.o
 .text._ZN7LSM9DS113getInactivityEv
                0x0000000000000000       0x18 build/obj/lsm9ds1.o
 .ARM.extab.text._ZN7LSM9DS113getInactivityEv
                0x0000000000000000        0xc build/obj/lsm9ds1.o
 .ARM.exidx.text._ZN7LSM9DS113getInactivityEv
                0x0000000000000000        0x8 build/obj/lsm9ds1.o
 .text._ZN7LSM9DS114configAccelIntEhb
                0x0000000000000000       0x20 build/obj/lsm9ds1.o
 .ARM.extab.text._ZN7LSM9DS114configAccelIntEhb
                0x0000000000000000        0x0 build/obj/lsm9ds1.o
 .ARM.exidx.text._ZN7LSM9DS114configAccelIntEhb
                0x0000000000000000        0x8 build/obj/lsm9ds1.o
 .text._ZN7LSM9DS114configAccelThsEh12lsm9ds1_axishb
                0x0000000000000000       0x38 build/obj/lsm9ds1.o
 .ARM.extab.text._ZN7LSM9DS114configAccelThsEh12lsm9ds1_axishb
                0x0000000000000000        0x0 build/obj/lsm9ds1.o
 .ARM.exidx.text._ZN7LSM9DS114configAccelThsEh12lsm9ds1_axishb
                0x0000000000000000        0x8 build/obj/lsm9ds1.o
 .text._ZN7LSM9DS114getAccelIntSrcEv
                0x0000000000000000       0x24 build/obj/lsm9ds1.o
 .ARM.extab.text._ZN7LSM9DS114getAccelIntSrcEv
                0x0000000000000000        0xc build/obj/lsm9ds1.o
 .ARM.exidx.text._ZN7LSM9DS114getAccelIntSrcEv
                0x0000000000000000        0x8 build/obj/lsm9ds1.o
 .text._ZN7LSM9DS113configGyroIntEhbb
                0x0000000000000000       0x24 build/obj/lsm9ds1.o
 .ARM.extab.text._ZN7LSM9DS113configGyroIntEhbb
                0x0000000000000000        0x0 build/obj/lsm9ds1.o
 .ARM.exidx.text._ZN7LSM9DS113configGyroIntEhbb
                0x0000000000000000        0x8 build/obj/lsm9ds1.o
 .text._ZN7LSM9DS113configGyroThsEs12lsm9ds1_axishb
                0x0000000000000000       0x60 build/obj/lsm9ds1.o
 .ARM.extab.text._ZN7LSM9DS113configGyroThsEs12lsm9ds1_axishb
                0x0000000000000000        0x0 build/obj/lsm9ds1.o
 .ARM.exidx.text._ZN7LSM9DS113configGyroThsEs12lsm9ds1_axishb
                0x0000000000000000        0x8 build/obj/lsm9ds1.o
 .text._ZN7LSM9DS113getGyroIntSrcEv
                0x0000000000000000       0x24 build/obj/lsm9ds1.o
 .ARM.extab.text._ZN7LSM9DS113getGyroIntSrcEv
                0x0000000000000000        0xc build/obj/lsm9ds1.o
 .ARM.exidx.text._ZN7LSM9DS113getGyroIntSrcEv
                0x0000000000000000        0x8 build/obj/lsm9ds1.o
 .text._ZN7LSM9DS112configMagIntEh9h_lactiveb
                0x0000000000000000       0x30 build/obj/lsm9ds1.o
 .ARM.extab.text._ZN7LSM9DS112configMagIntEh9h_lactiveb
                0x0000000000000000        0x0 build/obj/lsm9ds1.o
 .ARM.exidx.text._ZN7LSM9DS112configMagIntEh9h_lactiveb
                0x0000000000000000        0x8 build/obj/lsm9ds1.o
 .text._ZN7LSM9DS112configMagThsEt
                0x0000000000000000       0x2c build/obj/lsm9ds1.o
 .ARM.extab.text._ZN7LSM9DS112configMagThsEt
                0x0000000000000000        0x0 build/obj/lsm9ds1.o
 .ARM.exidx.text._ZN7LSM9DS112configMagThsEt
                0x0000000000000000        0x8 build/obj/lsm9ds1.o
 .text._ZN7LSM9DS112getMagIntSrcEv
                0x0000000000000000       0x20 build/obj/lsm9ds1.o
 .ARM.extab.text._ZN7LSM9DS112getMagIntSrcEv
                0x0000000000000000        0xc build/obj/lsm9ds1.o
 .ARM.exidx.text._ZN7LSM9DS112getMagIntSrcEv
                0x0000000000000000        0x8 build/obj/lsm9ds1.o
 .text._ZN7LSM9DS19sleepGyroEb
                0x0000000000000000       0x34 build/obj/lsm9ds1.o
 .ARM.extab.text._ZN7LSM9DS19sleepGyroEb
                0x0000000000000000        0x0 build/obj/lsm9ds1.o
 .ARM.exidx.text._ZN7LSM9DS19sleepGyroEb
                0x0000000000000000        0x8 build/obj/lsm9ds1.o
 .text._ZN7LSM9DS110enableFIFOEb
                0x0000000000000000       0x34 build/obj/lsm9ds1.o
 .ARM.extab.text._ZN7LSM9DS110enableFIFOEb
                0x0000000000000000        0x0 build/obj/lsm9ds1.o
 .ARM.exidx.text._ZN7LSM9DS110enableFIFOEb
                0x0000000000000000        0x8 build/obj/lsm9ds1.o
 .text._ZN7LSM9DS17setFIFOE13fifoMode_typeh
                0x0000000000000000       0x20 build/obj/lsm9ds1.o
 .ARM.extab.text._ZN7LSM9DS17setFIFOE13fifoMode_typeh
                0x0000000000000000        0x0 build/obj/lsm9ds1.o
 .ARM.exidx.text._ZN7LSM9DS17setFIFOE13fifoMode_typeh
                0x0000000000000000        0x8 build/obj/lsm9ds1.o
 .text._ZN7LSM9DS19calibrateEb
                0x0000000000000000      0x13c build/obj/lsm9ds1.o
 .ARM.extab.text._ZN7LSM9DS19calibrateEb
                0x0000000000000000        0x0 build/obj/lsm9ds1.o
 .ARM.exidx.text._ZN7LSM9DS19calibrateEb
                0x0000000000000000        0x8 build/obj/lsm9ds1.o
 .text._ZN7LSM9DS114getFIFOSamplesEv
                0x0000000000000000       0x18 build/obj/lsm9ds1.o
 .ARM.extab.text._ZN7LSM9DS114getFIFOSamplesEv
                0x0000000000000000        0xc build/obj/lsm9ds1.o
 .ARM.exidx.text._ZN7LSM9DS114getFIFOSamplesEv
                0x0000000000000000        0x8 build/obj/lsm9ds1.o
 .ARM.extab.text._ZN7LSM9DS115constrainScalesEv
                0x0000000000000000        0x0 build/obj/lsm9ds1.o
 .ARM.extab.text._ZN7LSM9DS15beginEv
                0x0000000000000000        0x0 build/obj/lsm9ds1.o
 .text._ZN7LSM9DS111xgWriteByteEhh
                0x0000000000000000       0x18 build/obj/lsm9ds1.o
 .ARM.extab.text._ZN7LSM9DS111xgWriteByteEhh
                0x0000000000000000        0x0 build/obj/lsm9ds1.o
 .ARM.exidx.text._ZN7LSM9DS111xgWriteByteEhh
                0x0000000000000000        0x8 build/obj/lsm9ds1.o
 .text._ZN7LSM9DS110mWriteByteEhh
                0x0000000000000000       0x18 build/obj/lsm9ds1.o
 .ARM.extab.text._ZN7LSM9DS110mWriteByteEhh
                0x0000000000000000        0x0 build/obj/lsm9ds1.o
 .ARM.exidx.text._ZN7LSM9DS110mWriteByteEhh
                0x0000000000000000        0x8 build/obj/lsm9ds1.o
 .text._ZN7LSM9DS110xgReadByteEh
                0x0000000000000000       0x10 build/obj/lsm9ds1.o
 .ARM.extab.text._ZN7LSM9DS110xgReadByteEh
                0x0000000000000000        0x0 build/obj/lsm9ds1.o
 .ARM.exidx.text._ZN7LSM9DS110xgReadByteEh
                0x0000000000000000        0x8 build/obj/lsm9ds1.o
 .text._ZN7LSM9DS111xgReadBytesEhPhh
                0x0000000000000000       0x20 build/obj/lsm9ds1.o
 .ARM.extab.text._ZN7LSM9DS111xgReadBytesEhPhh
                0x0000000000000000        0x0 build/obj/lsm9ds1.o
 .ARM.exidx.text._ZN7LSM9DS111xgReadBytesEhPhh
                0x0000000000000000        0x8 build/obj/lsm9ds1.o
 .text._ZN7LSM9DS19mReadByteEh
                0x0000000000000000       0x10 build/obj/lsm9ds1.o
 .ARM.extab.text._ZN7LSM9DS19mReadByteEh
                0x0000000000000000        0x0 build/obj/lsm9ds1.o
 .ARM.exidx.text._ZN7LSM9DS19mReadByteEh
                0x0000000000000000        0x8 build/obj/lsm9ds1.o
 .text._ZN7LSM9DS110mReadBytesEhPhh
                0x0000000000000000       0x20 build/obj/lsm9ds1.o
 .ARM.extab.text._ZN7LSM9DS110mReadBytesEhPhh
                0x0000000000000000        0x0 build/obj/lsm9ds1.o
 .ARM.exidx.text._ZN7LSM9DS110mReadBytesEhPhh
                0x0000000000000000        0x8 build/obj/lsm9ds1.o
 .text          0x0000000000000000        0x0 build/obj/mpl3115a2.o
 .data          0x0000000000000000        0x0 build/obj/mpl3115a2.o
 .bss           0x0000000000000000        0x0 build/obj/mpl3115a2.o
 .text._ZN7creator9MPL3115A2C2EPNS_3I2CEh
                0x0000000000000000       0x14 build/obj/mpl3115a2.o
 .ARM.extab.text._ZN7creator9MPL3115A2C2EPNS_3I2CEh
                0x0000000000000000        0x0 build/obj/mpl3115a2.o
 .ARM.exidx.text._ZN7creator9MPL3115A2C2EPNS_3I2CEh
                0x0000000000000000        0x8 build/obj/mpl3115a2.o
 .text._ZN7creator9MPL3115A25BeginEv
                0x0000000000000000       0x48 build/obj/mpl3115a2.o
 .ARM.extab.text._ZN7creator9MPL3115A25BeginEv
                0x0000000000000000        0x0 build/obj/mpl3115a2.o
 .ARM.exidx.text._ZN7creator9MPL3115A25BeginEv
                0x0000000000000000        0x8 build/obj/mpl3115a2.o
 .text._ZN7creator9MPL3115A211GetPressureEv
                0x0000000000000000       0x94 build/obj/mpl3115a2.o
 .ARM.extab.text._ZN7creator9MPL3115A211GetPressureEv
                0x0000000000000000        0x0 build/obj/mpl3115a2.o
 .ARM.exidx.text._ZN7creator9MPL3115A211GetPressureEv
                0x0000000000000000        0x8 build/obj/mpl3115a2.o
 .text._ZN7creator9MPL3115A211GetAltitudeEv
                0x0000000000000000       0xa0 build/obj/mpl3115a2.o
 .ARM.extab.text._ZN7creator9MPL3115A211GetAltitudeEv
                0x0000000000000000        0x0 build/obj/mpl3115a2.o
 .ARM.exidx.text._ZN7creator9MPL3115A211GetAltitudeEv
                0x0000000000000000        0x8 build/obj/mpl3115a2.o
 .text._ZN7creator9MPL3115A214GetTemperatureEv
                0x0000000000000000       0x88 build/obj/mpl3115a2.o
 .ARM.extab.text._ZN7creator9MPL3115A214GetTemperatureEv
                0x0000000000000000        0x0 build/obj/mpl3115a2.o
 .ARM.exidx.text._ZN7creator9MPL3115A214GetTemperatureEv
                0x0000000000000000        0x8 build/obj/mpl3115a2.o
 .text._ZN7creator9MPL3115A24ReadEh
                0x0000000000000000        0xc build/obj/mpl3115a2.o
 .ARM.extab.text._ZN7creator9MPL3115A24ReadEh
                0x0000000000000000        0x0 build/obj/mpl3115a2.o
 .ARM.exidx.text._ZN7creator9MPL3115A24ReadEh
                0x0000000000000000        0x8 build/obj/mpl3115a2.o
 .text._ZN7creator9MPL3115A25WriteEhh
                0x0000000000000000       0x14 build/obj/mpl3115a2.o
 .ARM.extab.text._ZN7creator9MPL3115A25WriteEhh
                0x0000000000000000        0x0 build/obj/mpl3115a2.o
 .ARM.exidx.text._ZN7creator9MPL3115A25WriteEhh
                0x0000000000000000        0x8 build/obj/mpl3115a2.o
 .debug_info    0x0000000000000000      0xe18 build/obj/mpl3115a2.o
 .debug_abbrev  0x0000000000000000      0x335 build/obj/mpl3115a2.o
 .debug_loc     0x0000000000000000      0x374 build/obj/mpl3115a2.o
 .debug_aranges
                0x0000000000000000       0x50 build/obj/mpl3115a2.o
 .debug_ranges  0x0000000000000000       0x88 build/obj/mpl3115a2.o
 .debug_line    0x0000000000000000      0x2bd build/obj/mpl3115a2.o
 .debug_str     0x0000000000000000      0x698 build/obj/mpl3115a2.o
 .comment       0x0000000000000000       0x39 build/obj/mpl3115a2.o
 .debug_frame   0x0000000000000000       0xd4 build/obj/mpl3115a2.o
 .ARM.attributes
                0x0000000000000000       0x33 build/obj/mpl3115a2.o
 .text          0x0000000000000000        0x0 build/obj/veml6070.o
 .data          0x0000000000000000        0x0 build/obj/veml6070.o
 .bss           0x0000000000000000        0x0 build/obj/veml6070.o
 .text._ZN7creator8VEML6070C2EPNS_3I2CE
                0x0000000000000000        0x8 build/obj/veml6070.o
 .ARM.extab.text._ZN7creator8VEML6070C2EPNS_3I2CE
                0x0000000000000000        0x0 build/obj/veml6070.o
 .ARM.exidx.text._ZN7creator8VEML6070C2EPNS_3I2CE
                0x0000000000000000        0x8 build/obj/veml6070.o
 .text._ZN7creator8VEML60705BeginEv
                0x0000000000000000       0x1c build/obj/veml6070.o
 .ARM.extab.text._ZN7creator8VEML60705BeginEv
                0x0000000000000000        0xc build/obj/veml6070.o
 .ARM.exidx.text._ZN7creator8VEML60705BeginEv
                0x0000000000000000        0x8 build/obj/veml6070.o
 .text._ZN7creator8VEML60705GetUVEv
                0x0000000000000000       0x2c build/obj/veml6070.o
 .ARM.extab.text._ZN7creator8VEML60705GetUVEv
                0x0000000000000000        0x0 build/obj/veml6070.o
 .ARM.exidx.text._ZN7creator8VEML60705GetUVEv
                0x0000000000000000        0x8 build/obj/veml6070.o
 .debug_info    0x0000000000000000      0x619 build/obj/veml6070.o
 .debug_abbrev  0x0000000000000000      0x27b build/obj/veml6070.o
 .debug_loc     0x0000000000000000       0x58 build/obj/veml6070.o
 .debug_aranges
                0x0000000000000000       0x30 build/obj/veml6070.o
 .debug_ranges  0x0000000000000000       0x38 build/obj/veml6070.o
 .debug_line    0x0000000000000000      0x17f build/obj/veml6070.o
 .debug_str     0x0000000000000000      0x4be build/obj/veml6070.o
 .comment       0x0000000000000000       0x39 build/obj/veml6070.o
 .debug_frame   0x0000000000000000       0x5c build/obj/veml6070.o
 .ARM.attributes
                0x0000000000000000       0x33 build/obj/veml6070.o
 .text          0x0000000000000000        0x0 build/obj/main.o
 .data          0x0000000000000000        0x0 build/obj/main.o
 .bss           0x0000000000000000        0x0 build/obj/main.o
 .text._Z10psram_copymPch
                0x0000000000000000       0x18 build/obj/main.o
 .ARM.extab.text._Z10psram_copymPch
                0x0000000000000000        0x0 build/obj/main.o
 .ARM.exidx.text._Z10psram_copymPch
                0x0000000000000000        0x8 build/obj/main.o
 .ARM.extab.text._Z13calculate_pidv
                0x0000000000000000        0x0 build/obj/main.o
 .text._Z7getCharmc
                0x0000000000000000       0x20 build/obj/main.o
 .ARM.extab.text._Z7getCharmc
                0x0000000000000000        0x0 build/obj/main.o
 .ARM.exidx.text._Z7getCharmc
                0x0000000000000000        0x8 build/obj/main.o
 .text._Z10set_periodP7PWMDataccc
                0x0000000000000000       0x24 build/obj/main.o
 .ARM.extab.text._Z10set_periodP7PWMDataccc
                0x0000000000000000        0x0 build/obj/main.o
 .ARM.exidx.text._Z10set_periodP7PWMDataccc
                0x0000000000000000        0x8 build/obj/main.o
 .ARM.extab.text._Z8set_dutyP7PWMDatacccc
                0x0000000000000000        0x0 build/obj/main.o
 .ARM.extab.text._Z10initMotorsP7PWMData
                0x0000000000000000        0x0 build/obj/main.o
 .ARM.extab.text._Z8plusDutyP7PWMDatai
                0x0000000000000000        0x0 build/obj/main.o
 .ARM.extab.text._ZL9IMUThreadPv
                0x0000000000000000        0x0 build/obj/main.o
 .text._Z9plusDuty2v
                0x0000000000000000       0x28 build/obj/main.o
 .ARM.extab.text._Z9plusDuty2v
                0x0000000000000000        0x0 build/obj/main.o
 .ARM.exidx.text._Z9plusDuty2v
                0x0000000000000000        0x8 build/obj/main.o
 .ARM.extab.text.startup.main
                0x0000000000000000        0x0 build/obj/main.o
 .ARM.extab.text.startup._GLOBAL__sub_I_ptr
                0x0000000000000000        0x0 build/obj/main.o
 .text          0x0000000000000000        0x0 /usr/lib/gcc/arm-none-eabi/4.9.3/../../../arm-none-eabi/lib/armv7-m/libm.a(lib_a-w_atan2.o)
 .data          0x0000000000000000        0x0 /usr/lib/gcc/arm-none-eabi/4.9.3/../../../arm-none-eabi/lib/armv7-m/libm.a(lib_a-w_atan2.o)
 .bss           0x0000000000000000        0x0 /usr/lib/gcc/arm-none-eabi/4.9.3/../../../arm-none-eabi/lib/armv7-m/libm.a(lib_a-w_atan2.o)
 .text          0x0000000000000000        0x0 /usr/lib/gcc/arm-none-eabi/4.9.3/../../../arm-none-eabi/lib/armv7-m/libm.a(lib_a-w_sqrt.o)
 .data          0x0000000000000000        0x0 /usr/lib/gcc/arm-none-eabi/4.9.3/../../../arm-none-eabi/lib/armv7-m/libm.a(lib_a-w_sqrt.o)
 .bss           0x0000000000000000        0x0 /usr/lib/gcc/arm-none-eabi/4.9.3/../../../arm-none-eabi/lib/armv7-m/libm.a(lib_a-w_sqrt.o)
 .text          0x0000000000000000        0x0 /usr/lib/gcc/arm-none-eabi/4.9.3/../../../arm-none-eabi/lib/armv7-m/libm.a(lib_a-e_atan2.o)
 .data          0x0000000000000000        0x0 /usr/lib/gcc/arm-none-eabi/4.9.3/../../../arm-none-eabi/lib/armv7-m/libm.a(lib_a-e_atan2.o)
 .bss           0x0000000000000000        0x0 /usr/lib/gcc/arm-none-eabi/4.9.3/../../../arm-none-eabi/lib/armv7-m/libm.a(lib_a-e_atan2.o)
 .text          0x0000000000000000        0x0 /usr/lib/gcc/arm-none-eabi/4.9.3/../../../arm-none-eabi/lib/armv7-m/libm.a(lib_a-e_sqrt.o)
 .data          0x0000000000000000        0x0 /usr/lib/gcc/arm-none-eabi/4.9.3/../../../arm-none-eabi/lib/armv7-m/libm.a(lib_a-e_sqrt.o)
 .bss           0x0000000000000000        0x0 /usr/lib/gcc/arm-none-eabi/4.9.3/../../../arm-none-eabi/lib/armv7-m/libm.a(lib_a-e_sqrt.o)
 .text          0x0000000000000000        0x0 /usr/lib/gcc/arm-none-eabi/4.9.3/../../../arm-none-eabi/lib/armv7-m/libm.a(lib_a-s_atan.o)
 .data          0x0000000000000000        0x0 /usr/lib/gcc/arm-none-eabi/4.9.3/../../../arm-none-eabi/lib/armv7-m/libm.a(lib_a-s_atan.o)
 .bss           0x0000000000000000        0x0 /usr/lib/gcc/arm-none-eabi/4.9.3/../../../arm-none-eabi/lib/armv7-m/libm.a(lib_a-s_atan.o)
 .text          0x0000000000000000        0x0 /usr/lib/gcc/arm-none-eabi/4.9.3/../../../arm-none-eabi/lib/armv7-m/libm.a(lib_a-s_fabs.o)
 .data          0x0000000000000000        0x0 /usr/lib/gcc/arm-none-eabi/4.9.3/../../../arm-none-eabi/lib/armv7-m/libm.a(lib_a-s_fabs.o)
 .bss           0x0000000000000000        0x0 /usr/lib/gcc/arm-none-eabi/4.9.3/../../../arm-none-eabi/lib/armv7-m/libm.a(lib_a-s_fabs.o)
 .text          0x0000000000000000        0x0 /usr/lib/gcc/arm-none-eabi/4.9.3/../../../arm-none-eabi/lib/armv7-m/libm.a(lib_a-s_fpclassify.o)
 .data          0x0000000000000000        0x0 /usr/lib/gcc/arm-none-eabi/4.9.3/../../../arm-none-eabi/lib/armv7-m/libm.a(lib_a-s_fpclassify.o)
 .bss           0x0000000000000000        0x0 /usr/lib/gcc/arm-none-eabi/4.9.3/../../../arm-none-eabi/lib/armv7-m/libm.a(lib_a-s_fpclassify.o)
 .text          0x0000000000000000        0x0 /usr/lib/gcc/arm-none-eabi/4.9.3/../../../arm-none-eabi/lib/armv7-m/libm.a(lib_a-s_lib_ver.o)
 .data          0x0000000000000000        0x0 /usr/lib/gcc/arm-none-eabi/4.9.3/../../../arm-none-eabi/lib/armv7-m/libm.a(lib_a-s_lib_ver.o)
 .bss           0x0000000000000000        0x0 /usr/lib/gcc/arm-none-eabi/4.9.3/../../../arm-none-eabi/lib/armv7-m/libm.a(lib_a-s_lib_ver.o)
 .text          0x0000000000000000        0x0 /usr/lib/gcc/arm-none-eabi/4.9.3/../../../arm-none-eabi/lib/armv7-m/libm.a(lib_a-s_matherr.o)
 .data          0x0000000000000000        0x0 /usr/lib/gcc/arm-none-eabi/4.9.3/../../../arm-none-eabi/lib/armv7-m/libm.a(lib_a-s_matherr.o)
 .bss           0x0000000000000000        0x0 /usr/lib/gcc/arm-none-eabi/4.9.3/../../../arm-none-eabi/lib/armv7-m/libm.a(lib_a-s_matherr.o)
 .data          0x0000000000000000        0x0 /usr/lib/gcc/arm-none-eabi/4.9.3/armv7-m/libgcc.a(_arm_addsubdf3.o)
 .bss           0x0000000000000000        0x0 /usr/lib/gcc/arm-none-eabi/4.9.3/armv7-m/libgcc.a(_arm_addsubdf3.o)
 .data          0x0000000000000000        0x0 /usr/lib/gcc/arm-none-eabi/4.9.3/armv7-m/libgcc.a(_arm_muldivdf3.o)
 .bss           0x0000000000000000        0x0 /usr/lib/gcc/arm-none-eabi/4.9.3/armv7-m/libgcc.a(_arm_muldivdf3.o)
 .data          0x0000000000000000        0x0 /usr/lib/gcc/arm-none-eabi/4.9.3/armv7-m/libgcc.a(_arm_cmpdf2.o)
 .bss           0x0000000000000000        0x0 /usr/lib/gcc/arm-none-eabi/4.9.3/armv7-m/libgcc.a(_arm_cmpdf2.o)
 .text          0x0000000000000000       0x50 /usr/lib/gcc/arm-none-eabi/4.9.3/armv7-m/libgcc.a(_arm_fixdfsi.o)
 .data          0x0000000000000000        0x0 /usr/lib/gcc/arm-none-eabi/4.9.3/armv7-m/libgcc.a(_arm_fixdfsi.o)
 .bss           0x0000000000000000        0x0 /usr/lib/gcc/arm-none-eabi/4.9.3/armv7-m/libgcc.a(_arm_fixdfsi.o)
 .debug_line    0x0000000000000000       0x77 /usr/lib/gcc/arm-none-eabi/4.9.3/armv7-m/libgcc.a(_arm_fixdfsi.o)
 .debug_info    0x0000000000000000       0xba /usr/lib/gcc/arm-none-eabi/4.9.3/armv7-m/libgcc.a(_arm_fixdfsi.o)
 .debug_abbrev  0x0000000000000000       0x14 /usr/lib/gcc/arm-none-eabi/4.9.3/armv7-m/libgcc.a(_arm_fixdfsi.o)
 .debug_aranges
                0x0000000000000000       0x20 /usr/lib/gcc/arm-none-eabi/4.9.3/armv7-m/libgcc.a(_arm_fixdfsi.o)
 .ARM.attributes
                0x0000000000000000       0x1d /usr/lib/gcc/arm-none-eabi/4.9.3/armv7-m/libgcc.a(_arm_fixdfsi.o)
 .data          0x0000000000000000        0x0 /usr/lib/gcc/arm-none-eabi/4.9.3/armv7-m/libgcc.a(_arm_truncdfsf2.o)
 .bss           0x0000000000000000        0x0 /usr/lib/gcc/arm-none-eabi/4.9.3/armv7-m/libgcc.a(_arm_truncdfsf2.o)
 .data          0x0000000000000000        0x0 /usr/lib/gcc/arm-none-eabi/4.9.3/armv7-m/libgcc.a(_arm_addsubsf3.o)
 .bss           0x0000000000000000        0x0 /usr/lib/gcc/arm-none-eabi/4.9.3/armv7-m/libgcc.a(_arm_addsubsf3.o)
 .data          0x0000000000000000        0x0 /usr/lib/gcc/arm-none-eabi/4.9.3/armv7-m/libgcc.a(_arm_muldivsf3.o)
 .bss           0x0000000000000000        0x0 /usr/lib/gcc/arm-none-eabi/4.9.3/armv7-m/libgcc.a(_arm_muldivsf3.o)
 .data          0x0000000000000000        0x0 /usr/lib/gcc/arm-none-eabi/4.9.3/armv7-m/libgcc.a(_arm_cmpsf2.o)
 .bss           0x0000000000000000        0x0 /usr/lib/gcc/arm-none-eabi/4.9.3/armv7-m/libgcc.a(_arm_cmpsf2.o)
 .data          0x0000000000000000        0x0 /usr/lib/gcc/arm-none-eabi/4.9.3/armv7-m/libgcc.a(_arm_fixsfsi.o)
 .bss           0x0000000000000000        0x0 /usr/lib/gcc/arm-none-eabi/4.9.3/armv7-m/libgcc.a(_arm_fixsfsi.o)
 .data          0x0000000000000000        0x0 /usr/lib/gcc/arm-none-eabi/4.9.3/armv7-m/libgcc.a(unwind-arm.o)
 .bss           0x0000000000000000        0x0 /usr/lib/gcc/arm-none-eabi/4.9.3/armv7-m/libgcc.a(unwind-arm.o)
 .ARM.extab     0x0000000000000000        0x0 /usr/lib/gcc/arm-none-eabi/4.9.3/armv7-m/libgcc.a(unwind-arm.o)
 .debug_info    0x0000000000000000     0x1c34 /usr/lib/gcc/arm-none-eabi/4.9.3/armv7-m/libgcc.a(unwind-arm.o)
 .debug_abbrev  0x0000000000000000      0x42c /usr/lib/gcc/arm-none-eabi/4.9.3/armv7-m/libgcc.a(unwind-arm.o)
 .debug_loc     0x0000000000000000     0x1798 /usr/lib/gcc/arm-none-eabi/4.9.3/armv7-m/libgcc.a(unwind-arm.o)
 .debug_aranges
                0x0000000000000000       0x20 /usr/lib/gcc/arm-none-eabi/4.9.3/armv7-m/libgcc.a(unwind-arm.o)
 .debug_ranges  0x0000000000000000      0x160 /usr/lib/gcc/arm-none-eabi/4.9.3/armv7-m/libgcc.a(unwind-arm.o)
 .debug_line    0x0000000000000000      0x529 /usr/lib/gcc/arm-none-eabi/4.9.3/armv7-m/libgcc.a(unwind-arm.o)
 .debug_str     0x0000000000000000      0xc34 /usr/lib/gcc/arm-none-eabi/4.9.3/armv7-m/libgcc.a(unwind-arm.o)
 .comment       0x0000000000000000       0x39 /usr/lib/gcc/arm-none-eabi/4.9.3/armv7-m/libgcc.a(unwind-arm.o)
 .debug_frame   0x0000000000000000      0x300 /usr/lib/gcc/arm-none-eabi/4.9.3/armv7-m/libgcc.a(unwind-arm.o)
 .ARM.attributes
                0x0000000000000000       0x2d /usr/lib/gcc/arm-none-eabi/4.9.3/armv7-m/libgcc.a(unwind-arm.o)
 .data          0x0000000000000000        0x0 /usr/lib/gcc/arm-none-eabi/4.9.3/armv7-m/libgcc.a(libunwind.o)
 .bss           0x0000000000000000        0x0 /usr/lib/gcc/arm-none-eabi/4.9.3/armv7-m/libgcc.a(libunwind.o)
 .debug_line    0x0000000000000000       0xab /usr/lib/gcc/arm-none-eabi/4.9.3/armv7-m/libgcc.a(libunwind.o)
 .debug_info    0x0000000000000000       0xb9 /usr/lib/gcc/arm-none-eabi/4.9.3/armv7-m/libgcc.a(libunwind.o)
 .debug_abbrev  0x0000000000000000       0x14 /usr/lib/gcc/arm-none-eabi/4.9.3/armv7-m/libgcc.a(libunwind.o)
 .debug_aranges
                0x0000000000000000       0x20 /usr/lib/gcc/arm-none-eabi/4.9.3/armv7-m/libgcc.a(libunwind.o)
 .ARM.attributes
                0x0000000000000000       0x1d /usr/lib/gcc/arm-none-eabi/4.9.3/armv7-m/libgcc.a(libunwind.o)
 .data          0x0000000000000000        0x0 /usr/lib/gcc/arm-none-eabi/4.9.3/armv7-m/libgcc.a(pr-support.o)
 .bss           0x0000000000000000        0x0 /usr/lib/gcc/arm-none-eabi/4.9.3/armv7-m/libgcc.a(pr-support.o)
 .debug_info    0x0000000000000000      0xa21 /usr/lib/gcc/arm-none-eabi/4.9.3/armv7-m/libgcc.a(pr-support.o)
 .debug_abbrev  0x0000000000000000      0x26e /usr/lib/gcc/arm-none-eabi/4.9.3/armv7-m/libgcc.a(pr-support.o)
 .debug_loc     0x0000000000000000      0x546 /usr/lib/gcc/arm-none-eabi/4.9.3/armv7-m/libgcc.a(pr-support.o)
 .debug_aranges
                0x0000000000000000       0x20 /usr/lib/gcc/arm-none-eabi/4.9.3/armv7-m/libgcc.a(pr-support.o)
 .debug_line    0x0000000000000000      0x1d2 /usr/lib/gcc/arm-none-eabi/4.9.3/armv7-m/libgcc.a(pr-support.o)
 .debug_str     0x0000000000000000      0x5c8 /usr/lib/gcc/arm-none-eabi/4.9.3/armv7-m/libgcc.a(pr-support.o)
 .comment       0x0000000000000000       0x39 /usr/lib/gcc/arm-none-eabi/4.9.3/armv7-m/libgcc.a(pr-support.o)
 .debug_frame   0x0000000000000000      0x104 /usr/lib/gcc/arm-none-eabi/4.9.3/armv7-m/libgcc.a(pr-support.o)
 .ARM.attributes
                0x0000000000000000       0x2d /usr/lib/gcc/arm-none-eabi/4.9.3/armv7-m/libgcc.a(pr-support.o)
 .text          0x0000000000000000        0x0 /usr/lib/gcc/arm-none-eabi/4.9.3/../../../arm-none-eabi/lib/armv7-m/libc.a(lib_a-abort.o)
 .data          0x0000000000000000        0x0 /usr/lib/gcc/arm-none-eabi/4.9.3/../../../arm-none-eabi/lib/armv7-m/libc.a(lib_a-abort.o)
 .bss           0x0000000000000000        0x0 /usr/lib/gcc/arm-none-eabi/4.9.3/../../../arm-none-eabi/lib/armv7-m/libc.a(lib_a-abort.o)
 .text          0x0000000000000000        0x0 /usr/lib/gcc/arm-none-eabi/4.9.3/../../../arm-none-eabi/lib/armv7-m/libc.a(lib_a-assert.o)
 .data          0x0000000000000000        0x0 /usr/lib/gcc/arm-none-eabi/4.9.3/../../../arm-none-eabi/lib/armv7-m/libc.a(lib_a-assert.o)
 .bss           0x0000000000000000        0x0 /usr/lib/gcc/arm-none-eabi/4.9.3/../../../arm-none-eabi/lib/armv7-m/libc.a(lib_a-assert.o)
 .text.__assert
                0x0000000000000000        0xc /usr/lib/gcc/arm-none-eabi/4.9.3/../../../arm-none-eabi/lib/armv7-m/libc.a(lib_a-assert.o)
 .text          0x0000000000000000        0x0 /usr/lib/gcc/arm-none-eabi/4.9.3/../../../arm-none-eabi/lib/armv7-m/libc.a(lib_a-errno.o)
 .data          0x0000000000000000        0x0 /usr/lib/gcc/arm-none-eabi/4.9.3/../../../arm-none-eabi/lib/armv7-m/libc.a(lib_a-errno.o)
 .bss           0x0000000000000000        0x0 /usr/lib/gcc/arm-none-eabi/4.9.3/../../../arm-none-eabi/lib/armv7-m/libc.a(lib_a-errno.o)
 .text          0x0000000000000000        0x0 /usr/lib/gcc/arm-none-eabi/4.9.3/../../../arm-none-eabi/lib/armv7-m/libc.a(lib_a-fiprintf.o)
 .data          0x0000000000000000        0x0 /usr/lib/gcc/arm-none-eabi/4.9.3/../../../arm-none-eabi/lib/armv7-m/libc.a(lib_a-fiprintf.o)
 .bss           0x0000000000000000        0x0 /usr/lib/gcc/arm-none-eabi/4.9.3/../../../arm-none-eabi/lib/armv7-m/libc.a(lib_a-fiprintf.o)
 .text._fiprintf_r
                0x0000000000000000       0x20 /usr/lib/gcc/arm-none-eabi/4.9.3/../../../arm-none-eabi/lib/armv7-m/libc.a(lib_a-fiprintf.o)
 .text          0x0000000000000000        0x0 /usr/lib/gcc/arm-none-eabi/4.9.3/../../../arm-none-eabi/lib/armv7-m/libc.a(lib_a-impure.o)
 .data          0x0000000000000000        0x0 /usr/lib/gcc/arm-none-eabi/4.9.3/../../../arm-none-eabi/lib/armv7-m/libc.a(lib_a-impure.o)
 .bss           0x0000000000000000        0x0 /usr/lib/gcc/arm-none-eabi/4.9.3/../../../arm-none-eabi/lib/armv7-m/libc.a(lib_a-impure.o)
 .rodata._global_impure_ptr
                0x0000000000000000        0x4 /usr/lib/gcc/arm-none-eabi/4.9.3/../../../arm-none-eabi/lib/armv7-m/libc.a(lib_a-impure.o)
 .data          0x0000000000000000        0x0 /usr/lib/gcc/arm-none-eabi/4.9.3/../../../arm-none-eabi/lib/armv7-m/libc.a(lib_a-memcpy.o)
 .bss           0x0000000000000000        0x0 /usr/lib/gcc/arm-none-eabi/4.9.3/../../../arm-none-eabi/lib/armv7-m/libc.a(lib_a-memcpy.o)
 .text          0x0000000000000000        0x0 /usr/lib/gcc/arm-none-eabi/4.9.3/../../../arm-none-eabi/lib/armv7-m/libc.a(lib_a-memset.o)
 .data          0x0000000000000000        0x0 /usr/lib/gcc/arm-none-eabi/4.9.3/../../../arm-none-eabi/lib/armv7-m/libc.a(lib_a-memset.o)
 .bss           0x0000000000000000        0x0 /usr/lib/gcc/arm-none-eabi/4.9.3/../../../arm-none-eabi/lib/armv7-m/libc.a(lib_a-memset.o)
 .text          0x0000000000000000        0x0 /usr/lib/gcc/arm-none-eabi/4.9.3/../../../arm-none-eabi/lib/armv7-m/libc.a(lib_a-signal.o)
 .data          0x0000000000000000        0x0 /usr/lib/gcc/arm-none-eabi/4.9.3/../../../arm-none-eabi/lib/armv7-m/libc.a(lib_a-signal.o)
 .bss           0x0000000000000000        0x0 /usr/lib/gcc/arm-none-eabi/4.9.3/../../../arm-none-eabi/lib/armv7-m/libc.a(lib_a-signal.o)
 .text._init_signal_r
                0x0000000000000000       0x38 /usr/lib/gcc/arm-none-eabi/4.9.3/../../../arm-none-eabi/lib/armv7-m/libc.a(lib_a-signal.o)
 .text._signal_r
                0x0000000000000000       0x38 /usr/lib/gcc/arm-none-eabi/4.9.3/../../../arm-none-eabi/lib/armv7-m/libc.a(lib_a-signal.o)
 .text.__sigtramp_r
                0x0000000000000000       0x54 /usr/lib/gcc/arm-none-eabi/4.9.3/../../../arm-none-eabi/lib/armv7-m/libc.a(lib_a-signal.o)
 .text.signal   0x0000000000000000       0x10 /usr/lib/gcc/arm-none-eabi/4.9.3/../../../arm-none-eabi/lib/armv7-m/libc.a(lib_a-signal.o)
 .text._init_signal
                0x0000000000000000        0xc /usr/lib/gcc/arm-none-eabi/4.9.3/../../../arm-none-eabi/lib/armv7-m/libc.a(lib_a-signal.o)
 .text.__sigtramp
                0x0000000000000000       0x10 /usr/lib/gcc/arm-none-eabi/4.9.3/../../../arm-none-eabi/lib/armv7-m/libc.a(lib_a-signal.o)
 .text          0x0000000000000000        0x0 /usr/lib/gcc/arm-none-eabi/4.9.3/../../../arm-none-eabi/lib/armv7-m/libc.a(lib_a-signalr.o)
 .data          0x0000000000000000        0x0 /usr/lib/gcc/arm-none-eabi/4.9.3/../../../arm-none-eabi/lib/armv7-m/libc.a(lib_a-signalr.o)
 .bss           0x0000000000000000        0x0 /usr/lib/gcc/arm-none-eabi/4.9.3/../../../arm-none-eabi/lib/armv7-m/libc.a(lib_a-signalr.o)
 .text          0x0000000000000000        0x0 /usr/lib/gcc/arm-none-eabi/4.9.3/../../../arm-none-eabi/lib/armv7-m/libc.a(lib_a-vfiprintf.o)
 .data          0x0000000000000000        0x0 /usr/lib/gcc/arm-none-eabi/4.9.3/../../../arm-none-eabi/lib/armv7-m/libc.a(lib_a-vfiprintf.o)
 .bss           0x0000000000000000        0x0 /usr/lib/gcc/arm-none-eabi/4.9.3/../../../arm-none-eabi/lib/armv7-m/libc.a(lib_a-vfiprintf.o)
 .text.__sprint_r
                0x0000000000000000       0x18 /usr/lib/gcc/arm-none-eabi/4.9.3/../../../arm-none-eabi/lib/armv7-m/libc.a(lib_a-vfiprintf.o)
 .text.vfiprintf
                0x0000000000000000       0x18 /usr/lib/gcc/arm-none-eabi/4.9.3/../../../arm-none-eabi/lib/armv7-m/libc.a(lib_a-vfiprintf.o)
 .text          0x0000000000000000        0x0 /usr/lib/gcc/arm-none-eabi/4.9.3/../../../arm-none-eabi/lib/armv7-m/libc.a(lib_a-wsetup.o)
 .data          0x0000000000000000        0x0 /usr/lib/gcc/arm-none-eabi/4.9.3/../../../arm-none-eabi/lib/armv7-m/libc.a(lib_a-wsetup.o)
 .bss           0x0000000000000000        0x0 /usr/lib/gcc/arm-none-eabi/4.9.3/../../../arm-none-eabi/lib/armv7-m/libc.a(lib_a-wsetup.o)
 .text          0x0000000000000000        0x0 /usr/lib/gcc/arm-none-eabi/4.9.3/../../../arm-none-eabi/lib/armv7-m/libc.a(lib_a-fflush.o)
 .data          0x0000000000000000        0x0 /usr/lib/gcc/arm-none-eabi/4.9.3/../../../arm-none-eabi/lib/armv7-m/libc.a(lib_a-fflush.o)
 .bss           0x0000000000000000        0x0 /usr/lib/gcc/arm-none-eabi/4.9.3/../../../arm-none-eabi/lib/armv7-m/libc.a(lib_a-fflush.o)
 .text.fflush   0x0000000000000000       0x24 /usr/lib/gcc/arm-none-eabi/4.9.3/../../../arm-none-eabi/lib/armv7-m/libc.a(lib_a-fflush.o)
 .text          0x0000000000000000        0x0 /usr/lib/gcc/arm-none-eabi/4.9.3/../../../arm-none-eabi/lib/armv7-m/libc.a(lib_a-findfp.o)
 .data          0x0000000000000000        0x0 /usr/lib/gcc/arm-none-eabi/4.9.3/../../../arm-none-eabi/lib/armv7-m/libc.a(lib_a-findfp.o)
 .bss           0x0000000000000000        0x0 /usr/lib/gcc/arm-none-eabi/4.9.3/../../../arm-none-eabi/lib/armv7-m/libc.a(lib_a-findfp.o)
 .text.__fp_lock
                0x0000000000000000        0x4 /usr/lib/gcc/arm-none-eabi/4.9.3/../../../arm-none-eabi/lib/armv7-m/libc.a(lib_a-findfp.o)
 .text.__fp_unlock
                0x0000000000000000        0x4 /usr/lib/gcc/arm-none-eabi/4.9.3/../../../arm-none-eabi/lib/armv7-m/libc.a(lib_a-findfp.o)
 .text.__sfmoreglue
                0x0000000000000000       0x30 /usr/lib/gcc/arm-none-eabi/4.9.3/../../../arm-none-eabi/lib/armv7-m/libc.a(lib_a-findfp.o)
 .text.__sfp    0x0000000000000000       0x88 /usr/lib/gcc/arm-none-eabi/4.9.3/../../../arm-none-eabi/lib/armv7-m/libc.a(lib_a-findfp.o)
 .text._cleanup
                0x0000000000000000       0x14 /usr/lib/gcc/arm-none-eabi/4.9.3/../../../arm-none-eabi/lib/armv7-m/libc.a(lib_a-findfp.o)
 .text.__sinit_lock_acquire
                0x0000000000000000        0x4 /usr/lib/gcc/arm-none-eabi/4.9.3/../../../arm-none-eabi/lib/armv7-m/libc.a(lib_a-findfp.o)
 .text.__sinit_lock_release
                0x0000000000000000        0x4 /usr/lib/gcc/arm-none-eabi/4.9.3/../../../arm-none-eabi/lib/armv7-m/libc.a(lib_a-findfp.o)
 .text.__fp_lock_all
                0x0000000000000000       0x14 /usr/lib/gcc/arm-none-eabi/4.9.3/../../../arm-none-eabi/lib/armv7-m/libc.a(lib_a-findfp.o)
 .text.__fp_unlock_all
                0x0000000000000000       0x14 /usr/lib/gcc/arm-none-eabi/4.9.3/../../../arm-none-eabi/lib/armv7-m/libc.a(lib_a-findfp.o)
 .text          0x0000000000000000        0x0 /usr/lib/gcc/arm-none-eabi/4.9.3/../../../arm-none-eabi/lib/armv7-m/libc.a(lib_a-fputwc.o)
 .data          0x0000000000000000        0x0 /usr/lib/gcc/arm-none-eabi/4.9.3/../../../arm-none-eabi/lib/armv7-m/libc.a(lib_a-fputwc.o)
 .bss           0x0000000000000000        0x0 /usr/lib/gcc/arm-none-eabi/4.9.3/../../../arm-none-eabi/lib/armv7-m/libc.a(lib_a-fputwc.o)
 .text.fputwc   0x0000000000000000       0x28 /usr/lib/gcc/arm-none-eabi/4.9.3/../../../arm-none-eabi/lib/armv7-m/libc.a(lib_a-fputwc.o)
 .text          0x0000000000000000        0x0 /usr/lib/gcc/arm-none-eabi/4.9.3/../../../arm-none-eabi/lib/armv7-m/libc.a(lib_a-freer.o)
 .data          0x0000000000000000        0x0 /usr/lib/gcc/arm-none-eabi/4.9.3/../../../arm-none-eabi/lib/armv7-m/libc.a(lib_a-freer.o)
 .bss           0x0000000000000000        0x0 /usr/lib/gcc/arm-none-eabi/4.9.3/../../../arm-none-eabi/lib/armv7-m/libc.a(lib_a-freer.o)
 .text          0x0000000000000000        0x0 /usr/lib/gcc/arm-none-eabi/4.9.3/../../../arm-none-eabi/lib/armv7-m/libc.a(lib_a-fvwrite.o)
 .data          0x0000000000000000        0x0 /usr/lib/gcc/arm-none-eabi/4.9.3/../../../arm-none-eabi/lib/armv7-m/libc.a(lib_a-fvwrite.o)
 .bss           0x0000000000000000        0x0 /usr/lib/gcc/arm-none-eabi/4.9.3/../../../arm-none-eabi/lib/armv7-m/libc.a(lib_a-fvwrite.o)
 .text          0x0000000000000000        0x0 /usr/lib/gcc/arm-none-eabi/4.9.3/../../../arm-none-eabi/lib/armv7-m/libc.a(lib_a-fwalk.o)
 .data          0x0000000000000000        0x0 /usr/lib/gcc/arm-none-eabi/4.9.3/../../../arm-none-eabi/lib/armv7-m/libc.a(lib_a-fwalk.o)
 .bss           0x0000000000000000        0x0 /usr/lib/gcc/arm-none-eabi/4.9.3/../../../arm-none-eabi/lib/armv7-m/libc.a(lib_a-fwalk.o)
 .text._fwalk   0x0000000000000000       0x48 /usr/lib/gcc/arm-none-eabi/4.9.3/../../../arm-none-eabi/lib/armv7-m/libc.a(lib_a-fwalk.o)
 .text          0x0000000000000000        0x0 /usr/lib/gcc/arm-none-eabi/4.9.3/../../../arm-none-eabi/lib/armv7-m/libc.a(lib_a-locale.o)
 .data          0x0000000000000000        0x0 /usr/lib/gcc/arm-none-eabi/4.9.3/../../../arm-none-eabi/lib/armv7-m/libc.a(lib_a-locale.o)
 .bss           0x0000000000000000        0x0 /usr/lib/gcc/arm-none-eabi/4.9.3/../../../arm-none-eabi/lib/armv7-m/libc.a(lib_a-locale.o)
 .text._setlocale_r
                0x0000000000000000       0x44 /usr/lib/gcc/arm-none-eabi/4.9.3/../../../arm-none-eabi/lib/armv7-m/libc.a(lib_a-locale.o)
 .text.__locale_msgcharset
                0x0000000000000000        0x8 /usr/lib/gcc/arm-none-eabi/4.9.3/../../../arm-none-eabi/lib/armv7-m/libc.a(lib_a-locale.o)
 .text.__locale_cjk_lang
                0x0000000000000000        0x4 /usr/lib/gcc/arm-none-eabi/4.9.3/../../../arm-none-eabi/lib/armv7-m/libc.a(lib_a-locale.o)
 .text._localeconv_r
                0x0000000000000000        0x8 /usr/lib/gcc/arm-none-eabi/4.9.3/../../../arm-none-eabi/lib/armv7-m/libc.a(lib_a-locale.o)
 .text.setlocale
                0x0000000000000000       0x10 /usr/lib/gcc/arm-none-eabi/4.9.3/../../../arm-none-eabi/lib/armv7-m/libc.a(lib_a-locale.o)
 .text.localeconv
                0x0000000000000000        0x8 /usr/lib/gcc/arm-none-eabi/4.9.3/../../../arm-none-eabi/lib/armv7-m/libc.a(lib_a-locale.o)
 .data.lc_message_charset
                0x0000000000000000       0x20 /usr/lib/gcc/arm-none-eabi/4.9.3/../../../arm-none-eabi/lib/armv7-m/libc.a(lib_a-locale.o)
 .bss._PathLocale
                0x0000000000000000        0x4 /usr/lib/gcc/arm-none-eabi/4.9.3/../../../arm-none-eabi/lib/armv7-m/libc.a(lib_a-locale.o)
 .bss.__nlocale_changed
                0x0000000000000000        0x4 /usr/lib/gcc/arm-none-eabi/4.9.3/../../../arm-none-eabi/lib/armv7-m/libc.a(lib_a-locale.o)
 .bss.__mlocale_changed
                0x0000000000000000        0x4 /usr/lib/gcc/arm-none-eabi/4.9.3/../../../arm-none-eabi/lib/armv7-m/libc.a(lib_a-locale.o)
 .data.lconv    0x0000000000000000       0x38 /usr/lib/gcc/arm-none-eabi/4.9.3/../../../arm-none-eabi/lib/armv7-m/libc.a(lib_a-locale.o)
 .rodata.str1.4
                0x0000000000000000       0x14 /usr/lib/gcc/arm-none-eabi/4.9.3/../../../arm-none-eabi/lib/armv7-m/libc.a(lib_a-locale.o)
 .text          0x0000000000000000        0x0 /usr/lib/gcc/arm-none-eabi/4.9.3/../../../arm-none-eabi/lib/armv7-m/libc.a(lib_a-makebuf.o)
 .data          0x0000000000000000        0x0 /usr/lib/gcc/arm-none-eabi/4.9.3/../../../arm-none-eabi/lib/armv7-m/libc.a(lib_a-makebuf.o)
 .bss           0x0000000000000000        0x0 /usr/lib/gcc/arm-none-eabi/4.9.3/../../../arm-none-eabi/lib/armv7-m/libc.a(lib_a-makebuf.o)
 .text          0x0000000000000000        0x0 /usr/lib/gcc/arm-none-eabi/4.9.3/../../../arm-none-eabi/lib/armv7-m/libc.a(lib_a-mallocr.o)
 .data          0x0000000000000000        0x0 /usr/lib/gcc/arm-none-eabi/4.9.3/../../../arm-none-eabi/lib/armv7-m/libc.a(lib_a-mallocr.o)
 .bss           0x0000000000000000        0x0 /usr/lib/gcc/arm-none-eabi/4.9.3/../../../arm-none-eabi/lib/armv7-m/libc.a(lib_a-mallocr.o)
 .text          0x0000000000000000        0x0 /usr/lib/gcc/arm-none-eabi/4.9.3/../../../arm-none-eabi/lib/armv7-m/libc.a(lib_a-memchr.o)
 .data          0x0000000000000000        0x0 /usr/lib/gcc/arm-none-eabi/4.9.3/../../../arm-none-eabi/lib/armv7-m/libc.a(lib_a-memchr.o)
 .bss           0x0000000000000000        0x0 /usr/lib/gcc/arm-none-eabi/4.9.3/../../../arm-none-eabi/lib/armv7-m/libc.a(lib_a-memchr.o)
 .text          0x0000000000000000        0x0 /usr/lib/gcc/arm-none-eabi/4.9.3/../../../arm-none-eabi/lib/armv7-m/libc.a(lib_a-memmove.o)
 .data          0x0000000000000000        0x0 /usr/lib/gcc/arm-none-eabi/4.9.3/../../../arm-none-eabi/lib/armv7-m/libc.a(lib_a-memmove.o)
 .bss           0x0000000000000000        0x0 /usr/lib/gcc/arm-none-eabi/4.9.3/../../../arm-none-eabi/lib/armv7-m/libc.a(lib_a-memmove.o)
 .text          0x0000000000000000        0x0 /usr/lib/gcc/arm-none-eabi/4.9.3/../../../arm-none-eabi/lib/armv7-m/libc.a(lib_a-mlock.o)
 .data          0x0000000000000000        0x0 /usr/lib/gcc/arm-none-eabi/4.9.3/../../../arm-none-eabi/lib/armv7-m/libc.a(lib_a-mlock.o)
 .bss           0x0000000000000000        0x0 /usr/lib/gcc/arm-none-eabi/4.9.3/../../../arm-none-eabi/lib/armv7-m/libc.a(lib_a-mlock.o)
 .text          0x0000000000000000        0x0 /usr/lib/gcc/arm-none-eabi/4.9.3/../../../arm-none-eabi/lib/armv7-m/libc.a(lib_a-reallocr.o)
 .data          0x0000000000000000        0x0 /usr/lib/gcc/arm-none-eabi/4.9.3/../../../arm-none-eabi/lib/armv7-m/libc.a(lib_a-reallocr.o)
 .bss           0x0000000000000000        0x0 /usr/lib/gcc/arm-none-eabi/4.9.3/../../../arm-none-eabi/lib/armv7-m/libc.a(lib_a-reallocr.o)
 .text          0x0000000000000000        0x0 /usr/lib/gcc/arm-none-eabi/4.9.3/../../../arm-none-eabi/lib/armv7-m/libc.a(lib_a-reent.o)
 .data          0x0000000000000000        0x0 /usr/lib/gcc/arm-none-eabi/4.9.3/../../../arm-none-eabi/lib/armv7-m/libc.a(lib_a-reent.o)
 .bss           0x0000000000000000        0x0 /usr/lib/gcc/arm-none-eabi/4.9.3/../../../arm-none-eabi/lib/armv7-m/libc.a(lib_a-reent.o)
 .text.cleanup_glue
                0x0000000000000000       0x1c /usr/lib/gcc/arm-none-eabi/4.9.3/../../../arm-none-eabi/lib/armv7-m/libc.a(lib_a-reent.o)
 .text._reclaim_reent
                0x0000000000000000       0x88 /usr/lib/gcc/arm-none-eabi/4.9.3/../../../arm-none-eabi/lib/armv7-m/libc.a(lib_a-reent.o)
 .text          0x0000000000000000        0x0 /usr/lib/gcc/arm-none-eabi/4.9.3/../../../arm-none-eabi/lib/armv7-m/libc.a(lib_a-stdio.o)
 .data          0x0000000000000000        0x0 /usr/lib/gcc/arm-none-eabi/4.9.3/../../../arm-none-eabi/lib/armv7-m/libc.a(lib_a-stdio.o)
 .bss           0x0000000000000000        0x0 /usr/lib/gcc/arm-none-eabi/4.9.3/../../../arm-none-eabi/lib/armv7-m/libc.a(lib_a-stdio.o)
 .text.__seofread
                0x0000000000000000        0x4 /usr/lib/gcc/arm-none-eabi/4.9.3/../../../arm-none-eabi/lib/armv7-m/libc.a(lib_a-stdio.o)
 .text          0x0000000000000000      0x1bc /usr/lib/gcc/arm-none-eabi/4.9.3/../../../arm-none-eabi/lib/armv7-m/libc.a(lib_a-strcmp.o)
 .data          0x0000000000000000        0x0 /usr/lib/gcc/arm-none-eabi/4.9.3/../../../arm-none-eabi/lib/armv7-m/libc.a(lib_a-strcmp.o)
 .bss           0x0000000000000000        0x0 /usr/lib/gcc/arm-none-eabi/4.9.3/../../../arm-none-eabi/lib/armv7-m/libc.a(lib_a-strcmp.o)
 .debug_line    0x0000000000000000      0x100 /usr/lib/gcc/arm-none-eabi/4.9.3/../../../arm-none-eabi/lib/armv7-m/libc.a(lib_a-strcmp.o)
 .debug_info    0x0000000000000000       0xcd /usr/lib/gcc/arm-none-eabi/4.9.3/../../../arm-none-eabi/lib/armv7-m/libc.a(lib_a-strcmp.o)
 .debug_abbrev  0x0000000000000000       0x14 /usr/lib/gcc/arm-none-eabi/4.9.3/../../../arm-none-eabi/lib/armv7-m/libc.a(lib_a-strcmp.o)
 .debug_aranges
                0x0000000000000000       0x20 /usr/lib/gcc/arm-none-eabi/4.9.3/../../../arm-none-eabi/lib/armv7-m/libc.a(lib_a-strcmp.o)
 .eh_frame      0x0000000000000000       0x38 /usr/lib/gcc/arm-none-eabi/4.9.3/../../../arm-none-eabi/lib/armv7-m/libc.a(lib_a-strcmp.o)
 .ARM.attributes
                0x0000000000000000       0x1b /usr/lib/gcc/arm-none-eabi/4.9.3/../../../arm-none-eabi/lib/armv7-m/libc.a(lib_a-strcmp.o)
 .text          0x0000000000000000        0x0 /usr/lib/gcc/arm-none-eabi/4.9.3/../../../arm-none-eabi/lib/armv7-m/libc.a(lib_a-strlen.o)
 .data          0x0000000000000000        0x0 /usr/lib/gcc/arm-none-eabi/4.9.3/../../../arm-none-eabi/lib/armv7-m/libc.a(lib_a-strlen.o)
 .bss           0x0000000000000000        0x0 /usr/lib/gcc/arm-none-eabi/4.9.3/../../../arm-none-eabi/lib/armv7-m/libc.a(lib_a-strlen.o)
 .text          0x0000000000000000        0x0 /usr/lib/gcc/arm-none-eabi/4.9.3/../../../arm-none-eabi/lib/armv7-m/libc.a(lib_a-wbuf.o)
 .data          0x0000000000000000        0x0 /usr/lib/gcc/arm-none-eabi/4.9.3/../../../arm-none-eabi/lib/armv7-m/libc.a(lib_a-wbuf.o)
 .bss           0x0000000000000000        0x0 /usr/lib/gcc/arm-none-eabi/4.9.3/../../../arm-none-eabi/lib/armv7-m/libc.a(lib_a-wbuf.o)
 .text.__swbuf  0x0000000000000000       0x10 /usr/lib/gcc/arm-none-eabi/4.9.3/../../../arm-none-eabi/lib/armv7-m/libc.a(lib_a-wbuf.o)
 .text          0x0000000000000000        0x0 /usr/lib/gcc/arm-none-eabi/4.9.3/../../../arm-none-eabi/lib/armv7-m/libc.a(lib_a-wcrtomb.o)
 .data          0x0000000000000000        0x0 /usr/lib/gcc/arm-none-eabi/4.9.3/../../../arm-none-eabi/lib/armv7-m/libc.a(lib_a-wcrtomb.o)
 .bss           0x0000000000000000        0x0 /usr/lib/gcc/arm-none-eabi/4.9.3/../../../arm-none-eabi/lib/armv7-m/libc.a(lib_a-wcrtomb.o)
 .text.wcrtomb  0x0000000000000000       0x58 /usr/lib/gcc/arm-none-eabi/4.9.3/../../../arm-none-eabi/lib/armv7-m/libc.a(lib_a-wcrtomb.o)
 .text          0x0000000000000000        0x0 /usr/lib/gcc/arm-none-eabi/4.9.3/../../../arm-none-eabi/lib/armv7-m/libc.a(lib_a-wctomb_r.o)
 .data          0x0000000000000000        0x0 /usr/lib/gcc/arm-none-eabi/4.9.3/../../../arm-none-eabi/lib/armv7-m/libc.a(lib_a-wctomb_r.o)
 .bss           0x0000000000000000        0x0 /usr/lib/gcc/arm-none-eabi/4.9.3/../../../arm-none-eabi/lib/armv7-m/libc.a(lib_a-wctomb_r.o)
 .text._wctomb_r
                0x0000000000000000       0x30 /usr/lib/gcc/arm-none-eabi/4.9.3/../../../arm-none-eabi/lib/armv7-m/libc.a(lib_a-wctomb_r.o)
 .text          0x0000000000000000        0x0 /usr/lib/gcc/arm-none-eabi/4.9.3/../../../arm-none-eabi/lib/armv7-m/libc.a(lib_a-fclose.o)
 .data          0x0000000000000000        0x0 /usr/lib/gcc/arm-none-eabi/4.9.3/../../../arm-none-eabi/lib/armv7-m/libc.a(lib_a-fclose.o)
 .bss           0x0000000000000000        0x0 /usr/lib/gcc/arm-none-eabi/4.9.3/../../../arm-none-eabi/lib/armv7-m/libc.a(lib_a-fclose.o)
 .text.fclose   0x0000000000000000       0x10 /usr/lib/gcc/arm-none-eabi/4.9.3/../../../arm-none-eabi/lib/armv7-m/libc.a(lib_a-fclose.o)
 .data          0x0000000000000000        0x0 /usr/lib/gcc/arm-none-eabi/4.9.3/armv7-m/libgcc.a(_aeabi_uldivmod.o)
 .bss           0x0000000000000000        0x0 /usr/lib/gcc/arm-none-eabi/4.9.3/armv7-m/libgcc.a(_aeabi_uldivmod.o)
 .data          0x0000000000000000        0x0 /usr/lib/gcc/arm-none-eabi/4.9.3/armv7-m/libgcc.a(bpabi.o)
 .bss           0x0000000000000000        0x0 /usr/lib/gcc/arm-none-eabi/4.9.3/armv7-m/libgcc.a(bpabi.o)
 .data          0x0000000000000000        0x0 /usr/lib/gcc/arm-none-eabi/4.9.3/armv7-m/libgcc.a(_dvmd_tls.o)
 .bss           0x0000000000000000        0x0 /usr/lib/gcc/arm-none-eabi/4.9.3/armv7-m/libgcc.a(_dvmd_tls.o)
 .data          0x0000000000000000        0x0 /usr/lib/gcc/arm-none-eabi/4.9.3/armv7-m/libgcc.a(_divdi3.o)
 .bss           0x0000000000000000        0x0 /usr/lib/gcc/arm-none-eabi/4.9.3/armv7-m/libgcc.a(_divdi3.o)
 .ARM.extab     0x0000000000000000        0x0 /usr/lib/gcc/arm-none-eabi/4.9.3/armv7-m/libgcc.a(_divdi3.o)
 .data          0x0000000000000000        0x0 /usr/lib/gcc/arm-none-eabi/4.9.3/armv7-m/libgcc.a(_udivdi3.o)
 .bss           0x0000000000000000        0x0 /usr/lib/gcc/arm-none-eabi/4.9.3/armv7-m/libgcc.a(_udivdi3.o)
 .ARM.extab     0x0000000000000000        0x0 /usr/lib/gcc/arm-none-eabi/4.9.3/armv7-m/libgcc.a(_udivdi3.o)

Memory Configuration

Name             Origin             Length             Attributes
flash            0x0000000000400000 0x0000000000020000
ram              0x0000000020000000 0x0000000000008000
*default*        0x0000000000000000 0xffffffffffffffff

Linker script and memory map

LOAD build/obj/crt0.o
LOAD build/obj/vectors.o
LOAD build/obj/chcore.o
LOAD build/obj/chcore_v7m.o
LOAD build/obj/nvic.o
LOAD build/obj/chsys.o
LOAD build/obj/chlists.o
LOAD build/obj/chvt.o
LOAD build/obj/chschd.o
LOAD build/obj/chthreads.o
LOAD build/obj/chdynamic.o
LOAD build/obj/chregistry.o
LOAD build/obj/chsem.o
LOAD build/obj/chmtx.o
LOAD build/obj/chcond.o
LOAD build/obj/chevents.o
LOAD build/obj/chmsg.o
LOAD build/obj/chmboxes.o
LOAD build/obj/chqueues.o
LOAD build/obj/chmemcore.o
LOAD build/obj/chheap.o
LOAD build/obj/chmempools.o
LOAD build/obj/test.o
LOAD build/obj/testthd.o
LOAD build/obj/testsem.o
LOAD build/obj/testmtx.o
LOAD build/obj/testmsg.o
LOAD build/obj/testmbox.o
LOAD build/obj/testevt.o
LOAD build/obj/testheap.o
LOAD build/obj/testpools.o
LOAD build/obj/testdyn.o
LOAD build/obj/testqueues.o
LOAD build/obj/testbmk.o
LOAD build/obj/hal.o
LOAD build/obj/pal.o
LOAD build/obj/serial.o
LOAD build/obj/hal_lld.o
LOAD build/obj/system_SAM3.o
LOAD build/obj/pal_lld.o
LOAD build/obj/serial_lld.o
LOAD build/obj/atmel_adc.o
LOAD build/obj/pio.o
LOAD build/obj/pmc.o
LOAD build/obj/atmel_twi.o
LOAD build/obj/atmel_twid.o
LOAD build/obj/atmel_spi.o
LOAD build/obj/atmel_psram.o
LOAD build/obj/board.o
LOAD build/obj/evtimer.o
LOAD build/obj/syscalls.o
LOAD build/obj/chprintf.o
LOAD build/obj/i2c.o
LOAD build/obj/hts221.o
LOAD build/obj/lsm9ds1.o
LOAD build/obj/mpl3115a2.o
LOAD build/obj/veml6070.o
LOAD build/obj/main.o
LOAD /usr/lib/gcc/arm-none-eabi/4.9.3/../../../arm-none-eabi/lib/armv7-m/libm.a
START GROUP
LOAD /usr/lib/gcc/arm-none-eabi/4.9.3/armv7-m/libgcc.a
LOAD /usr/lib/gcc/arm-none-eabi/4.9.3/../../../arm-none-eabi/lib/armv7-m/libc.a
END GROUP
                0x0000000000000400                __main_stack_size__ = 0x400
                0x0000000000000400                __process_stack_size__ = 0x400
                0x0000000000000800                __stacks_total_size__ = (__main_stack_size__ + __process_stack_size__)
                0x0000000020000000                __ram_start__ = ORIGIN (ram)
                0x0000000000008000                __ram_size__ = LENGTH (ram)
                0x0000000020008000                __ram_end__ = (__ram_start__ + __ram_size__)
                0x0000000000000000                . = 0x0
                0x0000000000000000                _text = .

startup         0x0000000000400000       0xd0
 *(vectors)
 vectors        0x0000000000400000       0xd0 build/obj/vectors.o
                0x0000000000400000                _vectors

constructors    0x00000000004000d0        0x4
                0x00000000004000d0                PROVIDE (__init_array_start, .)
 *(SORT(.init_array.*))
 *(.init_array)
 .init_array    0x00000000004000d0        0x4 build/obj/main.o
                0x00000000004000d4                PROVIDE (__init_array_end, .)

destructors     0x00000000004000d4        0x0
                0x00000000004000d4                PROVIDE (__fini_array_start, .)
 *(.fini_array)
 *(SORT(.fini_array.*))
                0x00000000004000d4                PROVIDE (__fini_array_end, .)

.text           0x00000000004000e0     0x8190
 *(.text.startup.*)
 .text.startup.main
                0x00000000004000e0       0x58 build/obj/main.o
                0x00000000004000e0                main
 *fill*         0x0000000000400138        0x8 
 .text.startup._GLOBAL__sub_I_ptr
                0x0000000000400140       0x48 build/obj/main.o
 *(.text)
 *fill*         0x0000000000400188        0x8 
 .text          0x0000000000400190      0x370 /usr/lib/gcc/arm-none-eabi/4.9.3/armv7-m/libgcc.a(_arm_addsubdf3.o)
                0x0000000000400190                __aeabi_drsub
                0x0000000000400198                __aeabi_dsub
                0x0000000000400198                __subdf3
                0x000000000040019c                __adddf3
                0x000000000040019c                __aeabi_dadd
                0x0000000000400414                __aeabi_ui2d
                0x0000000000400414                __floatunsidf
                0x0000000000400434                __floatsidf
                0x0000000000400434                __aeabi_i2d
                0x0000000000400458                __extendsfdf2
                0x0000000000400458                __aeabi_f2d
                0x0000000000400494                __aeabi_ul2d
                0x0000000000400494                __floatundidf
                0x00000000004004a4                __floatdidf
                0x00000000004004a4                __aeabi_l2d
 .text          0x0000000000400500      0x424 /usr/lib/gcc/arm-none-eabi/4.9.3/armv7-m/libgcc.a(_arm_muldivdf3.o)
                0x0000000000400500                __aeabi_dmul
                0x0000000000400500                __muldf3
                0x0000000000400754                __aeabi_ddiv
                0x0000000000400754                __divdf3
 *fill*         0x0000000000400924        0xc 
 .text          0x0000000000400930      0x110 /usr/lib/gcc/arm-none-eabi/4.9.3/armv7-m/libgcc.a(_arm_cmpdf2.o)
                0x0000000000400930                __gtdf2
                0x0000000000400930                __gedf2
                0x0000000000400938                __ltdf2
                0x0000000000400938                __ledf2
                0x0000000000400940                __cmpdf2
                0x0000000000400940                __eqdf2
                0x0000000000400940                __nedf2
                0x00000000004009bc                __aeabi_cdrcmple
                0x00000000004009cc                __aeabi_cdcmple
                0x00000000004009cc                __aeabi_cdcmpeq
                0x00000000004009dc                __aeabi_dcmpeq
                0x00000000004009f0                __aeabi_dcmplt
                0x0000000000400a04                __aeabi_dcmple
                0x0000000000400a18                __aeabi_dcmpge
                0x0000000000400a2c                __aeabi_dcmpgt
 .text          0x0000000000400a40       0xa0 /usr/lib/gcc/arm-none-eabi/4.9.3/armv7-m/libgcc.a(_arm_truncdfsf2.o)
                0x0000000000400a40                __aeabi_d2f
                0x0000000000400a40                __truncdfsf2
 .text          0x0000000000400ae0      0x21c /usr/lib/gcc/arm-none-eabi/4.9.3/armv7-m/libgcc.a(_arm_addsubsf3.o)
                0x0000000000400ae0                __aeabi_frsub
                0x0000000000400ae8                __subsf3
                0x0000000000400ae8                __aeabi_fsub
                0x0000000000400aec                __aeabi_fadd
                0x0000000000400aec                __addsf3
                0x0000000000400c4c                __aeabi_ui2f
                0x0000000000400c4c                __floatunsisf
                0x0000000000400c54                __aeabi_i2f
                0x0000000000400c54                __floatsisf
                0x0000000000400c70                __floatundisf
                0x0000000000400c70                __aeabi_ul2f
                0x0000000000400c80                __floatdisf
                0x0000000000400c80                __aeabi_l2f
 *fill*         0x0000000000400cfc        0x4 
 .text          0x0000000000400d00      0x2a0 /usr/lib/gcc/arm-none-eabi/4.9.3/armv7-m/libgcc.a(_arm_muldivsf3.o)
                0x0000000000400d00                __mulsf3
                0x0000000000400d00                __aeabi_fmul
                0x0000000000400e68                __divsf3
                0x0000000000400e68                __aeabi_fdiv
 .text          0x0000000000400fa0       0xec /usr/lib/gcc/arm-none-eabi/4.9.3/armv7-m/libgcc.a(_arm_cmpsf2.o)
                0x0000000000400fa0                __gtsf2
                0x0000000000400fa0                __gesf2
                0x0000000000400fa8                __lesf2
                0x0000000000400fa8                __ltsf2
                0x0000000000400fb0                __nesf2
                0x0000000000400fb0                __eqsf2
                0x0000000000400fb0                __cmpsf2
                0x0000000000401010                __aeabi_cfrcmple
                0x0000000000401018                __aeabi_cfcmple
                0x0000000000401018                __aeabi_cfcmpeq
                0x0000000000401028                __aeabi_fcmpeq
                0x000000000040103c                __aeabi_fcmplt
                0x0000000000401050                __aeabi_fcmple
                0x0000000000401064                __aeabi_fcmpge
                0x0000000000401078                __aeabi_fcmpgt
 *fill*         0x000000000040108c        0x4 
 .text          0x0000000000401090       0x4c /usr/lib/gcc/arm-none-eabi/4.9.3/armv7-m/libgcc.a(_arm_fixsfsi.o)
                0x0000000000401090                __fixsfsi
                0x0000000000401090                __aeabi_f2iz
 *fill*         0x00000000004010dc        0x4 
 .text          0x00000000004010e0      0xa54 /usr/lib/gcc/arm-none-eabi/4.9.3/armv7-m/libgcc.a(unwind-arm.o)
                0x00000000004013c0                _Unwind_GetCFA
                0x00000000004013c4                __gnu_Unwind_RaiseException
                0x0000000000401424                __gnu_Unwind_ForcedUnwind
                0x0000000000401438                __gnu_Unwind_Resume
                0x000000000040147c                __gnu_Unwind_Resume_or_Rethrow
                0x0000000000401490                _Unwind_Complete
                0x0000000000401494                _Unwind_DeleteException
                0x00000000004014a0                _Unwind_VRS_Get
                0x00000000004014f0                _Unwind_VRS_Set
                0x0000000000401540                __gnu_Unwind_Backtrace
                0x0000000000401884                __aeabi_unwind_cpp_pr0
                0x0000000000401888                __aeabi_unwind_cpp_pr1
                0x000000000040188c                __aeabi_unwind_cpp_pr2
                0x0000000000401890                _Unwind_VRS_Pop
 *fill*         0x0000000000401b34        0xc 
 .text          0x0000000000401b40      0x1ac /usr/lib/gcc/arm-none-eabi/4.9.3/armv7-m/libgcc.a(libunwind.o)
                0x0000000000401b40                __restore_core_regs
                0x0000000000401b40                restore_core_regs
                0x0000000000401b58                __gnu_Unwind_Restore_VFP
                0x0000000000401b60                __gnu_Unwind_Save_VFP
                0x0000000000401b68                __gnu_Unwind_Restore_VFP_D
                0x0000000000401b70                __gnu_Unwind_Save_VFP_D
                0x0000000000401b78                __gnu_Unwind_Restore_VFP_D_16_to_31
                0x0000000000401b80                __gnu_Unwind_Save_VFP_D_16_to_31
                0x0000000000401b88                __gnu_Unwind_Restore_WMMXD
                0x0000000000401bcc                __gnu_Unwind_Save_WMMXD
                0x0000000000401c10                __gnu_Unwind_Restore_WMMXC
                0x0000000000401c24                __gnu_Unwind_Save_WMMXC
                0x0000000000401c38                ___Unwind_RaiseException
                0x0000000000401c38                _Unwind_RaiseException
                0x0000000000401c5c                ___Unwind_Resume
                0x0000000000401c5c                _Unwind_Resume
                0x0000000000401c80                _Unwind_Resume_or_Rethrow
                0x0000000000401c80                ___Unwind_Resume_or_Rethrow
                0x0000000000401ca4                ___Unwind_ForcedUnwind
                0x0000000000401ca4                _Unwind_ForcedUnwind
                0x0000000000401cc8                _Unwind_Backtrace
                0x0000000000401cc8                ___Unwind_Backtrace
 *fill*         0x0000000000401cec        0x4 
 .text          0x0000000000401cf0      0x37c /usr/lib/gcc/arm-none-eabi/4.9.3/armv7-m/libgcc.a(pr-support.o)
                0x0000000000401d48                __gnu_unwind_execute
                0x0000000000402014                __gnu_unwind_frame
                0x000000000040203c                _Unwind_GetRegionStart
                0x0000000000402048                _Unwind_GetLanguageSpecificData
                0x000000000040205c                _Unwind_GetDataRelBase
                0x0000000000402064                _Unwind_GetTextRelBase
 *fill*         0x000000000040206c        0x4 
 .text          0x0000000000402070       0xec /usr/lib/gcc/arm-none-eabi/4.9.3/../../../arm-none-eabi/lib/armv7-m/libc.a(lib_a-memcpy.o)
                0x0000000000402070                memcpy
 *fill*         0x000000000040215c        0x4 
 .text          0x0000000000402160       0x30 /usr/lib/gcc/arm-none-eabi/4.9.3/armv7-m/libgcc.a(_aeabi_uldivmod.o)
                0x0000000000402160                __aeabi_uldivmod
 .text          0x0000000000402190       0x60 /usr/lib/gcc/arm-none-eabi/4.9.3/armv7-m/libgcc.a(bpabi.o)
                0x0000000000402190                __gnu_ldivmod_helper
                0x00000000004021c0                __gnu_uldivmod_helper
 .text          0x00000000004021f0        0x4 /usr/lib/gcc/arm-none-eabi/4.9.3/armv7-m/libgcc.a(_dvmd_tls.o)
                0x00000000004021f0                __aeabi_ldiv0
                0x00000000004021f0                __aeabi_idiv0
 *fill*         0x00000000004021f4        0xc 
 .text          0x0000000000402200      0x2ac /usr/lib/gcc/arm-none-eabi/4.9.3/armv7-m/libgcc.a(_divdi3.o)
                0x0000000000402200                __divdi3
 *fill*         0x00000000004024ac        0x4 
 .text          0x00000000004024b0      0x270 /usr/lib/gcc/arm-none-eabi/4.9.3/armv7-m/libgcc.a(_udivdi3.o)
                0x00000000004024b0                __udivdi3
 *(.text.*)
 .text.__late_init
                0x0000000000402720        0x4 build/obj/crt0.o
                0x0000000000402720                __late_init
 *fill*         0x0000000000402724        0xc 
 .text._default_exit
                0x0000000000402730        0x4 build/obj/crt0.o
                0x0000000000402730                _default_exit
 *fill*         0x0000000000402734        0xc 
 .text.ResetHandler
                0x0000000000402740      0x108 build/obj/crt0.o
                0x0000000000402740                ResetHandler
 *fill*         0x0000000000402848        0x8 
 .text._unhandled_exception
                0x0000000000402850        0x4 build/obj/vectors.o
                0x0000000000402850                Vector58
                0x0000000000402850                Vector9C
                0x0000000000402850                VectorAC
                0x0000000000402850                Vector5C
                0x0000000000402850                NMIVector
                0x0000000000402850                Vector8C
                0x0000000000402850                VectorC8
                0x0000000000402850                Vector94
                0x0000000000402850                VectorA8
                0x0000000000402850                VectorB4
                0x0000000000402850                Vector74
                0x0000000000402850                UsageFaultVector
                0x0000000000402850                DebugMonitorVector
                0x0000000000402850                Vector40
                0x0000000000402850                VectorBC
                0x0000000000402850                PendSVVector
                0x0000000000402850                VectorCC
                0x0000000000402850                Vector54
                0x0000000000402850                Vector98
                0x0000000000402850                Vector24
                0x0000000000402850                Vector84
                0x0000000000402850                BusFaultVector
                0x0000000000402850                VectorC0
                0x0000000000402850                HardFaultVector
                0x0000000000402850                MemManageVector
                0x0000000000402850                Vector6C
                0x0000000000402850                VectorA0
                0x0000000000402850                VectorC4
                0x0000000000402850                Vector7C
                0x0000000000402850                VectorB0
                0x0000000000402850                Vector90
                0x0000000000402850                Vector1C
                0x0000000000402850                Vector48
                0x0000000000402850                Vector70
                0x0000000000402850                Vector4C
                0x0000000000402850                Vector80
                0x0000000000402850                Vector68
                0x0000000000402850                Vector78
                0x0000000000402850                _unhandled_exception
                0x0000000000402850                Vector88
                0x0000000000402850                Vector50
                0x0000000000402850                Vector44
                0x0000000000402850                Vector28
                0x0000000000402850                VectorB8
                0x0000000000402850                Vector34
                0x0000000000402850                VectorA4
                0x0000000000402850                Vector20
 *fill*         0x0000000000402854        0xc 
 .text._port_switch_from_isr
                0x0000000000402860        0x8 build/obj/chcore_v7m.o
                0x0000000000402860                _port_switch_from_isr
 *fill*         0x0000000000402868        0x8 
 .text.SVCallVector
                0x0000000000402870       0x14 build/obj/chcore_v7m.o
                0x0000000000402870                SVCallVector
 *fill*         0x0000000000402884        0xc 
 .text._port_init
                0x0000000000402890       0x34 build/obj/chcore_v7m.o
                0x0000000000402890                _port_init
 *fill*         0x00000000004028c4        0xc 
 .text._port_irq_epilogue
                0x00000000004028d0       0x74 build/obj/chcore_v7m.o
                0x00000000004028d0                _port_irq_epilogue
 *fill*         0x0000000000402944        0xc 
 .text.SysTickVector
                0x0000000000402950       0x1c build/obj/chcore_v7m.o
                0x0000000000402950                SysTickVector
 *fill*         0x000000000040296c        0x4 
 .text._port_switch
                0x0000000000402970       0x10 build/obj/chcore_v7m.o
                0x0000000000402970                _port_switch
 .text._port_thread_start
                0x0000000000402980       0x10 build/obj/chcore_v7m.o
                0x0000000000402980                _port_thread_start
 .text.nvicEnableVector
                0x0000000000402990       0x48 build/obj/nvic.o
                0x0000000000402990                nvicEnableVector
 *fill*         0x00000000004029d8        0x8 
 .text.nvicSetSystemHandlerPriority
                0x00000000004029e0       0x2c build/obj/nvic.o
                0x00000000004029e0                nvicSetSystemHandlerPriority
 *fill*         0x0000000000402a0c        0x4 
 .text._idle_thread
                0x0000000000402a10       0x14 build/obj/chsys.o
                0x0000000000402a10                _idle_thread
 *fill*         0x0000000000402a24        0xc 
 .text.chSysInit
                0x0000000000402a30       0x5c build/obj/chsys.o
                0x0000000000402a30                chSysInit
 *fill*         0x0000000000402a8c        0x4 
 .text.chSysTimerHandlerI
                0x0000000000402a90       0x50 build/obj/chsys.o
                0x0000000000402a90                chSysTimerHandlerI
 .text._vt_init
                0x0000000000402ae0       0x18 build/obj/chvt.o
                0x0000000000402ae0                _vt_init
 *fill*         0x0000000000402af8        0x8 
 .text.chVTSetI
                0x0000000000402b00       0x3c build/obj/chvt.o
                0x0000000000402b00                chVTSetI
 *fill*         0x0000000000402b3c        0x4 
 .text.chVTResetI
                0x0000000000402b40       0x24 build/obj/chvt.o
                0x0000000000402b40                chVTResetI
 *fill*         0x0000000000402b64        0xc 
 .text.wakeup   0x0000000000402b70       0x58 build/obj/chschd.o
 *fill*         0x0000000000402bc8        0x8 
 .text._scheduler_init
                0x0000000000402bd0       0x18 build/obj/chschd.o
                0x0000000000402bd0                _scheduler_init
 *fill*         0x0000000000402be8        0x8 
 .text.chSchReadyI
                0x0000000000402bf0       0x2c build/obj/chschd.o
                0x0000000000402bf0                chSchReadyI
 *fill*         0x0000000000402c1c        0x4 
 .text.chSchGoSleepS
                0x0000000000402c20       0x28 build/obj/chschd.o
                0x0000000000402c20                chSchGoSleepS
 *fill*         0x0000000000402c48        0x8 
 .text.chSchGoSleepTimeoutS
                0x0000000000402c50       0x44 build/obj/chschd.o
                0x0000000000402c50                chSchGoSleepTimeoutS
 *fill*         0x0000000000402c94        0xc 
 .text.chSchWakeupS
                0x0000000000402ca0       0x5c build/obj/chschd.o
                0x0000000000402ca0                chSchWakeupS
 *fill*         0x0000000000402cfc        0x4 
 .text.chSchDoReschedule
                0x0000000000402d00       0x48 build/obj/chschd.o
                0x0000000000402d00                chSchDoReschedule
 *fill*         0x0000000000402d48        0x8 
 .text._thread_init
                0x0000000000402d50       0x44 build/obj/chthreads.o
                0x0000000000402d50                _thread_init
 *fill*         0x0000000000402d94        0xc 
 .text.chThdCreateStatic
                0x0000000000402da0       0x80 build/obj/chthreads.o
                0x0000000000402da0                chThdCreateStatic
 .text.chThdSleep
                0x0000000000402e20       0x18 build/obj/chthreads.o
                0x0000000000402e20                chThdSleep
 *fill*         0x0000000000402e38        0x8 
 .text.chThdExitS
                0x0000000000402e40       0x40 build/obj/chthreads.o
                0x0000000000402e40                chThdExitS
 .text.chThdExit
                0x0000000000402e80        0xc build/obj/chthreads.o
                0x0000000000402e80                chThdExit
 *fill*         0x0000000000402e8c        0x4 
 .text.chMtxInit
                0x0000000000402e90        0xc build/obj/chmtx.o
                0x0000000000402e90                chMtxInit
 *fill*         0x0000000000402e9c        0x4 
 .text.chEvtSignalFlagsI
                0x0000000000402ea0       0x30 build/obj/chevents.o
                0x0000000000402ea0                chEvtSignalFlagsI
 .text.chEvtBroadcastFlagsI
                0x0000000000402ed0       0x20 build/obj/chevents.o
                0x0000000000402ed0                chEvtBroadcastFlagsI
 .text.qwait    0x0000000000402ef0       0x2c build/obj/chqueues.o
 *fill*         0x0000000000402f1c        0x4 
 .text.chIQInit
                0x0000000000402f20       0x1c build/obj/chqueues.o
                0x0000000000402f20                chIQInit
 *fill*         0x0000000000402f3c        0x4 
 .text.chIQPutI
                0x0000000000402f40       0x4c build/obj/chqueues.o
                0x0000000000402f40                chIQPutI
 *fill*         0x0000000000402f8c        0x4 
 .text.chIQGetTimeout
                0x0000000000402f90       0x50 build/obj/chqueues.o
                0x0000000000402f90                chIQGetTimeout
 .text.chIQReadTimeout
                0x0000000000402fe0       0x70 build/obj/chqueues.o
                0x0000000000402fe0                chIQReadTimeout
 .text.chOQInit
                0x0000000000403050       0x1c build/obj/chqueues.o
                0x0000000000403050                chOQInit
 *fill*         0x000000000040306c        0x4 
 .text.chOQPutTimeout
                0x0000000000403070       0x54 build/obj/chqueues.o
                0x0000000000403070                chOQPutTimeout
 *fill*         0x00000000004030c4        0xc 
 .text.chOQGetI
                0x00000000004030d0       0x48 build/obj/chqueues.o
                0x00000000004030d0                chOQGetI
 *fill*         0x0000000000403118        0x8 
 .text.chOQWriteTimeout
                0x0000000000403120       0x80 build/obj/chqueues.o
                0x0000000000403120                chOQWriteTimeout
 .text._core_init
                0x00000000004031a0       0x28 build/obj/chmemcore.o
                0x00000000004031a0                _core_init
 *fill*         0x00000000004031c8        0x8 
 .text.chCoreAlloc
                0x00000000004031d0       0x38 build/obj/chmemcore.o
                0x00000000004031d0                chCoreAlloc
 *fill*         0x0000000000403208        0x8 
 .text._heap_init
                0x0000000000403210       0x1c build/obj/chheap.o
                0x0000000000403210                _heap_init
 *fill*         0x000000000040322c        0x4 
 .text.halInit  0x0000000000403230       0x1c build/obj/hal.o
                0x0000000000403230                halInit
 *fill*         0x000000000040324c        0x4 
 .text.putwouldblock
                0x0000000000403250        0xc build/obj/serial.o
 *fill*         0x000000000040325c        0x4 
 .text.getwouldblock
                0x0000000000403260        0xc build/obj/serial.o
 *fill*         0x000000000040326c        0x4 
 .text.getflags
                0x0000000000403270       0x18 build/obj/serial.o
 *fill*         0x0000000000403288        0x8 
 .text.readt    0x0000000000403290        0x8 build/obj/serial.o
 *fill*         0x0000000000403298        0x8 
 .text.reads    0x00000000004032a0        0xc build/obj/serial.o
 *fill*         0x00000000004032ac        0x4 
 .text.writet   0x00000000004032b0        0x8 build/obj/serial.o
 *fill*         0x00000000004032b8        0x8 
 .text.writes   0x00000000004032c0        0xc build/obj/serial.o
 *fill*         0x00000000004032cc        0x4 
 .text.gett     0x00000000004032d0        0x8 build/obj/serial.o
 *fill*         0x00000000004032d8        0x8 
 .text.putt     0x00000000004032e0        0x8 build/obj/serial.o
 *fill*         0x00000000004032e8        0x8 
 .text.sdInit   0x00000000004032f0        0x4 build/obj/serial.o
                0x00000000004032f0                sdInit
 *fill*         0x00000000004032f4        0xc 
 .text.sdObjectInit
                0x0000000000403300       0x40 build/obj/serial.o
                0x0000000000403300                sdObjectInit
 .text.sdStart  0x0000000000403340       0x1c build/obj/serial.o
                0x0000000000403340                sdStart
 *fill*         0x000000000040335c        0x4 
 .text.sdIncomingDataI
                0x0000000000403360       0x4c build/obj/serial.o
                0x0000000000403360                sdIncomingDataI
 *fill*         0x00000000004033ac        0x4 
 .text.hal_lld_init
                0x00000000004033b0       0x38 build/obj/hal_lld.o
                0x00000000004033b0                hal_lld_init
 *fill*         0x00000000004033e8        0x8 
 .text.at91sam3_clock_init
                0x00000000004033f0        0x4 build/obj/hal_lld.o
                0x00000000004033f0                at91sam3_clock_init
 *fill*         0x00000000004033f4        0xc 
 .text.SystemCoreClockUpdate
                0x0000000000403400       0xf4 build/obj/system_SAM3.o
                0x0000000000403400                SystemCoreClockUpdate
 *fill*         0x00000000004034f4        0xc 
 .text.SystemInit
                0x0000000000403500       0x94 build/obj/system_SAM3.o
                0x0000000000403500                SystemInit
 *fill*         0x0000000000403594        0xc 
 .text._pal_lld_init
                0x00000000004035a0       0xb8 build/obj/pal_lld.o
                0x00000000004035a0                _pal_lld_init
 *fill*         0x0000000000403658        0x8 
 .text._pal_lld_setgroupmode
                0x0000000000403660       0x34 build/obj/pal_lld.o
                0x0000000000403660                _pal_lld_setgroupmode
 *fill*         0x0000000000403694        0xc 
 .text.notify1  0x00000000004036a0        0xc build/obj/serial_lld.o
 *fill*         0x00000000004036ac        0x4 
 .text.notify2  0x00000000004036b0        0xc build/obj/serial_lld.o
 *fill*         0x00000000004036bc        0x4 
 .text.serve_interrupt
                0x00000000004036c0       0xa4 build/obj/serial_lld.o
 *fill*         0x0000000000403764        0xc 
 .text.Vector60
                0x0000000000403770       0x14 build/obj/serial_lld.o
                0x0000000000403770                Vector60
 *fill*         0x0000000000403784        0xc 
 .text.Vector64
                0x0000000000403790       0x14 build/obj/serial_lld.o
                0x0000000000403790                Vector64
 *fill*         0x00000000004037a4        0xc 
 .text.sd_lld_init
                0x00000000004037b0       0x58 build/obj/serial_lld.o
                0x00000000004037b0                sd_lld_init
 *fill*         0x0000000000403808        0x8 
 .text.sd_lld_start
                0x0000000000403810       0xa4 build/obj/serial_lld.o
                0x0000000000403810                sd_lld_start
 *fill*         0x00000000004038b4        0xc 
 .text.PIO_Configure
                0x00000000004038c0      0x154 build/obj/pio.o
                0x00000000004038c0                PIO_Configure
 *fill*         0x0000000000403a14        0xc 
 .text.PMC_EnablePeripheral
                0x0000000000403a20       0x50 build/obj/pmc.o
                0x0000000000403a20                PMC_EnablePeripheral
 .text.unlikely.TWI_WriteByte.part.0
                0x0000000000403a70       0x1c build/obj/atmel_twi.o
 *fill*         0x0000000000403a8c        0x4 
 .text.TWI_ConfigureMaster
                0x0000000000403a90       0x74 build/obj/atmel_twi.o
                0x0000000000403a90                TWI_ConfigureMaster
 *fill*         0x0000000000403b04        0xc 
 .text.TWI_Stop
                0x0000000000403b10       0x24 build/obj/atmel_twi.o
                0x0000000000403b10                TWI_Stop
 *fill*         0x0000000000403b34        0xc 
 .text.TWI_StartRead
                0x0000000000403b40       0x74 build/obj/atmel_twi.o
                0x0000000000403b40                TWI_StartRead
 *fill*         0x0000000000403bb4        0xc 
 .text.TWI_ReadByte
                0x0000000000403bc0       0x24 build/obj/atmel_twi.o
                0x0000000000403bc0                TWI_ReadByte
 *fill*         0x0000000000403be4        0xc 
 .text.TWI_WriteByte
                0x0000000000403bf0        0xc build/obj/atmel_twi.o
                0x0000000000403bf0                TWI_WriteByte
 *fill*         0x0000000000403bfc        0x4 
 .text.TWI_StartWrite
                0x0000000000403c00       0x78 build/obj/atmel_twi.o
                0x0000000000403c00                TWI_StartWrite
 *fill*         0x0000000000403c78        0x8 
 .text.TWI_ByteReceived
                0x0000000000403c80        0x8 build/obj/atmel_twi.o
                0x0000000000403c80                TWI_ByteReceived
 *fill*         0x0000000000403c88        0x8 
 .text.TWI_ByteSent
                0x0000000000403c90        0x8 build/obj/atmel_twi.o
                0x0000000000403c90                TWI_ByteSent
 *fill*         0x0000000000403c98        0x8 
 .text.TWI_TransferComplete
                0x0000000000403ca0        0x8 build/obj/atmel_twi.o
                0x0000000000403ca0                TWI_TransferComplete
 *fill*         0x0000000000403ca8        0x8 
 .text.TWI_EnableIt
                0x0000000000403cb0       0x40 build/obj/atmel_twi.o
                0x0000000000403cb0                TWI_EnableIt
 .text.TWI_SendSTOPCondition
                0x0000000000403cf0       0x28 build/obj/atmel_twi.o
                0x0000000000403cf0                TWI_SendSTOPCondition
 *fill*         0x0000000000403d18        0x8 
 .text.TWID_Initialize
                0x0000000000403d20        0x8 build/obj/atmel_twid.o
                0x0000000000403d20                TWID_Initialize
 *fill*         0x0000000000403d28        0x8 
 .text.TWID_Read
                0x0000000000403d30      0x10c build/obj/atmel_twid.o
                0x0000000000403d30                TWID_Read
 *fill*         0x0000000000403e3c        0x4 
 .text.TWID_Write
                0x0000000000403e40       0xe8 build/obj/atmel_twid.o
                0x0000000000403e40                TWID_Write
 *fill*         0x0000000000403f28        0x8 
 .text.BOARD_ConfigurePSRAM
                0x0000000000403f30       0x30 build/obj/atmel_psram.o
                0x0000000000403f30                BOARD_ConfigurePSRAM
 .text.__early_init
                0x0000000000403f60       0x10 build/obj/board.o
                0x0000000000403f60                __early_init
 .text.boardInit
                0x0000000000403f70       0x5c build/obj/board.o
                0x0000000000403f70                boardInit
 *fill*         0x0000000000403fcc        0x4 
 .text._read_r  0x0000000000403fd0        0xc build/obj/syscalls.o
                0x0000000000403fd0                _read_r
 *fill*         0x0000000000403fdc        0x4 
 .text._lseek_r
                0x0000000000403fe0        0x4 build/obj/syscalls.o
                0x0000000000403fe0                _lseek_r
 *fill*         0x0000000000403fe4        0xc 
 .text._write_r
                0x0000000000403ff0        0x4 build/obj/syscalls.o
                0x0000000000403ff0                _write_r
 *fill*         0x0000000000403ff4        0xc 
 .text._close_r
                0x0000000000404000        0x4 build/obj/syscalls.o
                0x0000000000404000                _close_r
 *fill*         0x0000000000404004        0xc 
 .text._sbrk_r  0x0000000000404010       0x18 build/obj/syscalls.o
                0x0000000000404010                _sbrk_r
 *fill*         0x0000000000404028        0x8 
 .text._fstat_r
                0x0000000000404030       0x18 build/obj/syscalls.o
                0x0000000000404030                _fstat_r
 *fill*         0x0000000000404048        0x8 
 .text._isatty_r
                0x0000000000404050        0x4 build/obj/syscalls.o
                0x0000000000404050                _isatty_r
 *fill*         0x0000000000404054        0xc 
 .text._getpid  0x0000000000404060        0x4 build/obj/syscalls.o
                0x0000000000404060                _getpid
 *fill*         0x0000000000404064        0xc 
 .text._exit    0x0000000000404070        0x4 build/obj/syscalls.o
                0x0000000000404070                _exit
 *fill*         0x0000000000404074        0xc 
 .text._kill    0x0000000000404080        0x8 build/obj/syscalls.o
                0x0000000000404080                _kill
 *fill*         0x0000000000404088        0x8 
 .text._ZN7creator3I2C4InitEv
                0x0000000000404090       0x60 build/obj/i2c.o
                0x0000000000404090                creator::I2C::Init()
 .text._ZN7creator3I2C9WriteByteEhhh
                0x00000000004040f0       0x28 build/obj/i2c.o
                0x00000000004040f0                creator::I2C::WriteByte(unsigned char, unsigned char, unsigned char)
 *fill*         0x0000000000404118        0x8 
 .text._ZN7creator3I2C8ReadByteEhh
                0x0000000000404120       0x30 build/obj/i2c.o
                0x0000000000404120                creator::I2C::ReadByte(unsigned char, unsigned char)
 .text._ZN7creator3I2C9ReadBytesEhhPhh
                0x0000000000404150       0x30 build/obj/i2c.o
                0x0000000000404150                creator::I2C::ReadBytes(unsigned char, unsigned char, unsigned char*, unsigned char)
 .text._ZN7LSM9DS14initE14interface_modehh
                0x0000000000404180       0xbc build/obj/lsm9ds1.o
                0x0000000000404180                LSM9DS1::init(interface_mode, unsigned char, unsigned char)
 *fill*         0x000000000040423c        0x4 
 .text._ZN7LSM9DS1C2EPN7creator3I2CE14interface_modehh
                0x0000000000404240       0x1c build/obj/lsm9ds1.o
                0x0000000000404240                LSM9DS1::LSM9DS1(creator::I2C*, interface_mode, unsigned char, unsigned char)
                0x0000000000404240                LSM9DS1::LSM9DS1(creator::I2C*, interface_mode, unsigned char, unsigned char)
 *fill*         0x000000000040425c        0x4 
 .text._ZN7LSM9DS18initGyroEv
                0x0000000000404260       0xd8 build/obj/lsm9ds1.o
                0x0000000000404260                LSM9DS1::initGyro()
 *fill*         0x0000000000404338        0x8 
 .text._ZN7LSM9DS19initAccelEv
                0x0000000000404340       0x9c build/obj/lsm9ds1.o
                0x0000000000404340                LSM9DS1::initAccel()
 *fill*         0x00000000004043dc        0x4 
 .text._ZN7LSM9DS17initMagEv
                0x00000000004043e0       0xac build/obj/lsm9ds1.o
                0x00000000004043e0                LSM9DS1::initMag()
 *fill*         0x000000000040448c        0x4 
 .text._ZN7LSM9DS19readAccelEv
                0x0000000000404490       0x68 build/obj/lsm9ds1.o
                0x0000000000404490                LSM9DS1::readAccel()
 *fill*         0x00000000004044f8        0x8 
 .text._ZN7LSM9DS17readMagEv
                0x0000000000404500       0x48 build/obj/lsm9ds1.o
                0x0000000000404500                LSM9DS1::readMag()
 *fill*         0x0000000000404548        0x8 
 .text._ZN7LSM9DS18readGyroEv
                0x0000000000404550       0x68 build/obj/lsm9ds1.o
                0x0000000000404550                LSM9DS1::readGyro()
 *fill*         0x00000000004045b8        0x8 
 .text._ZN7LSM9DS18calcGyroEs
                0x00000000004045c0       0x14 build/obj/lsm9ds1.o
                0x00000000004045c0                LSM9DS1::calcGyro(short)
 *fill*         0x00000000004045d4        0xc 
 .text._ZN7LSM9DS19calcAccelEs
                0x00000000004045e0       0x14 build/obj/lsm9ds1.o
                0x00000000004045e0                LSM9DS1::calcAccel(short)
 *fill*         0x00000000004045f4        0xc 
 .text._ZN7LSM9DS17calcMagEs
                0x0000000000404600       0x14 build/obj/lsm9ds1.o
                0x0000000000404600                LSM9DS1::calcMag(short)
 *fill*         0x0000000000404614        0xc 
 .text._ZN7LSM9DS18calcmResEv
                0x0000000000404620       0x40 build/obj/lsm9ds1.o
                0x0000000000404620                LSM9DS1::calcmRes()
 .text._ZN7LSM9DS115constrainScalesEv
                0x0000000000404660       0x48 build/obj/lsm9ds1.o
                0x0000000000404660                LSM9DS1::constrainScales()
 *fill*         0x00000000004046a8        0x8 
 .text._ZN7LSM9DS15beginEv
                0x00000000004046b0       0x80 build/obj/lsm9ds1.o
                0x00000000004046b0                LSM9DS1::begin()
 .text._Z13calculate_pidv
                0x0000000000404730      0x1d4 build/obj/main.o
                0x0000000000404730                calculate_pid()
 *fill*         0x0000000000404904        0xc 
 .text._Z8set_dutyP7PWMDatacccc
                0x0000000000404910       0xb0 build/obj/main.o
                0x0000000000404910                set_duty(PWMData*, char, char, char, char)
 .text._Z10initMotorsP7PWMData
                0x00000000004049c0       0x74 build/obj/main.o
                0x00000000004049c0                initMotors(PWMData*)
 *fill*         0x0000000000404a34        0xc 
 .text._Z8plusDutyP7PWMDatai
                0x0000000000404a40      0x184 build/obj/main.o
                0x0000000000404a40                plusDuty(PWMData*, int)
 *fill*         0x0000000000404bc4        0xc 
 .text._ZL9IMUThreadPv
                0x0000000000404bd0      0x2f0 build/obj/main.o
 .text.atan2    0x0000000000404ec0        0x4 /usr/lib/gcc/arm-none-eabi/4.9.3/../../../arm-none-eabi/lib/armv7-m/libm.a(lib_a-w_atan2.o)
                0x0000000000404ec0                atan2
 *fill*         0x0000000000404ec4        0xc 
 .text.sqrt     0x0000000000404ed0       0xac /usr/lib/gcc/arm-none-eabi/4.9.3/../../../arm-none-eabi/lib/armv7-m/libm.a(lib_a-w_sqrt.o)
                0x0000000000404ed0                sqrt
 *fill*         0x0000000000404f7c        0x4 
 .text.__ieee754_atan2
                0x0000000000404f80      0x1b8 /usr/lib/gcc/arm-none-eabi/4.9.3/../../../arm-none-eabi/lib/armv7-m/libm.a(lib_a-e_atan2.o)
                0x0000000000404f80                __ieee754_atan2
 *fill*         0x0000000000405138        0x8 
 .text.__ieee754_sqrt
                0x0000000000405140      0x18c /usr/lib/gcc/arm-none-eabi/4.9.3/../../../arm-none-eabi/lib/armv7-m/libm.a(lib_a-e_sqrt.o)
                0x0000000000405140                __ieee754_sqrt
 *fill*         0x00000000004052cc        0x4 
 .text.atan     0x00000000004052d0      0x338 /usr/lib/gcc/arm-none-eabi/4.9.3/../../../arm-none-eabi/lib/armv7-m/libm.a(lib_a-s_atan.o)
                0x00000000004052d0                atan
 *fill*         0x0000000000405608        0x8 
 .text.fabs     0x0000000000405610        0x8 /usr/lib/gcc/arm-none-eabi/4.9.3/../../../arm-none-eabi/lib/armv7-m/libm.a(lib_a-s_fabs.o)
                0x0000000000405610                fabs
 *fill*         0x0000000000405618        0x8 
 .text.__fpclassifyd
                0x0000000000405620       0x58 /usr/lib/gcc/arm-none-eabi/4.9.3/../../../arm-none-eabi/lib/armv7-m/libm.a(lib_a-s_fpclassify.o)
                0x0000000000405620                __fpclassifyd
 *fill*         0x0000000000405678        0x8 
 .text.matherr  0x0000000000405680        0x4 /usr/lib/gcc/arm-none-eabi/4.9.3/../../../arm-none-eabi/lib/armv7-m/libm.a(lib_a-s_matherr.o)
                0x0000000000405680                matherr
 *fill*         0x0000000000405684        0xc 
 .text.abort    0x0000000000405690       0x10 /usr/lib/gcc/arm-none-eabi/4.9.3/../../../arm-none-eabi/lib/armv7-m/libc.a(lib_a-abort.o)
                0x0000000000405690                abort
 .text.__assert_func
                0x00000000004056a0       0x3c /usr/lib/gcc/arm-none-eabi/4.9.3/../../../arm-none-eabi/lib/armv7-m/libc.a(lib_a-assert.o)
                0x00000000004056a0                __assert_func
 *fill*         0x00000000004056dc        0x4 
 .text.__errno  0x00000000004056e0        0xc /usr/lib/gcc/arm-none-eabi/4.9.3/../../../arm-none-eabi/lib/armv7-m/libc.a(lib_a-errno.o)
                0x00000000004056e0                __errno
 *fill*         0x00000000004056ec        0x4 
 .text.fiprintf
                0x00000000004056f0       0x28 /usr/lib/gcc/arm-none-eabi/4.9.3/../../../arm-none-eabi/lib/armv7-m/libc.a(lib_a-fiprintf.o)
                0x00000000004056f0                fiprintf
 *fill*         0x0000000000405718        0x8 
 .text.memset   0x0000000000405720       0x9c /usr/lib/gcc/arm-none-eabi/4.9.3/../../../arm-none-eabi/lib/armv7-m/libc.a(lib_a-memset.o)
                0x0000000000405720                memset
 *fill*         0x00000000004057bc        0x4 
 .text._raise_r
                0x00000000004057c0       0x58 /usr/lib/gcc/arm-none-eabi/4.9.3/../../../arm-none-eabi/lib/armv7-m/libc.a(lib_a-signal.o)
                0x00000000004057c0                _raise_r
 *fill*         0x0000000000405818        0x8 
 .text.raise    0x0000000000405820       0x10 /usr/lib/gcc/arm-none-eabi/4.9.3/../../../arm-none-eabi/lib/armv7-m/libc.a(lib_a-signal.o)
                0x0000000000405820                raise
 .text._kill_r  0x0000000000405830       0x28 /usr/lib/gcc/arm-none-eabi/4.9.3/../../../arm-none-eabi/lib/armv7-m/libc.a(lib_a-signalr.o)
                0x0000000000405830                _kill_r
 *fill*         0x0000000000405858        0x8 
 .text._getpid_r
                0x0000000000405860        0x4 /usr/lib/gcc/arm-none-eabi/4.9.3/../../../arm-none-eabi/lib/armv7-m/libc.a(lib_a-signalr.o)
                0x0000000000405860                _getpid_r
 *fill*         0x0000000000405864        0xc 
 .text.__sprint_r.part.0
                0x0000000000405870       0x78 /usr/lib/gcc/arm-none-eabi/4.9.3/../../../arm-none-eabi/lib/armv7-m/libc.a(lib_a-vfiprintf.o)
 *fill*         0x00000000004058e8        0x8 
 .text._vfiprintf_r
                0x00000000004058f0      0xc10 /usr/lib/gcc/arm-none-eabi/4.9.3/../../../arm-none-eabi/lib/armv7-m/libc.a(lib_a-vfiprintf.o)
                0x00000000004058f0                _vfiprintf_r
 .text.__sbprintf
                0x0000000000406500       0x7c /usr/lib/gcc/arm-none-eabi/4.9.3/../../../arm-none-eabi/lib/armv7-m/libc.a(lib_a-vfiprintf.o)
 *fill*         0x000000000040657c        0x4 
 .text.__swsetup_r
                0x0000000000406580       0xc4 /usr/lib/gcc/arm-none-eabi/4.9.3/../../../arm-none-eabi/lib/armv7-m/libc.a(lib_a-wsetup.o)
                0x0000000000406580                __swsetup_r
 *fill*         0x0000000000406644        0xc 
 .text.__sflush_r
                0x0000000000406650      0x148 /usr/lib/gcc/arm-none-eabi/4.9.3/../../../arm-none-eabi/lib/armv7-m/libc.a(lib_a-fflush.o)
                0x0000000000406650                __sflush_r
 *fill*         0x0000000000406798        0x8 
 .text._fflush_r
                0x00000000004067a0       0x2c /usr/lib/gcc/arm-none-eabi/4.9.3/../../../arm-none-eabi/lib/armv7-m/libc.a(lib_a-fflush.o)
                0x00000000004067a0                _fflush_r
 *fill*         0x00000000004067cc        0x4 
 .text._cleanup_r
                0x00000000004067d0        0xc /usr/lib/gcc/arm-none-eabi/4.9.3/../../../arm-none-eabi/lib/armv7-m/libc.a(lib_a-findfp.o)
                0x00000000004067d0                _cleanup_r
 *fill*         0x00000000004067dc        0x4 
 .text.__sinit.part.1
                0x00000000004067e0       0xf0 /usr/lib/gcc/arm-none-eabi/4.9.3/../../../arm-none-eabi/lib/armv7-m/libc.a(lib_a-findfp.o)
 .text.__sinit  0x00000000004068d0        0xc /usr/lib/gcc/arm-none-eabi/4.9.3/../../../arm-none-eabi/lib/armv7-m/libc.a(lib_a-findfp.o)
                0x00000000004068d0                __sinit
 *fill*         0x00000000004068dc        0x4 
 .text.__sfp_lock_acquire
                0x00000000004068e0        0x4 /usr/lib/gcc/arm-none-eabi/4.9.3/../../../arm-none-eabi/lib/armv7-m/libc.a(lib_a-findfp.o)
                0x00000000004068e0                __sfp_lock_acquire
 *fill*         0x00000000004068e4        0xc 
 .text.__sfp_lock_release
                0x00000000004068f0        0x4 /usr/lib/gcc/arm-none-eabi/4.9.3/../../../arm-none-eabi/lib/armv7-m/libc.a(lib_a-findfp.o)
                0x00000000004068f0                __sfp_lock_release
 *fill*         0x00000000004068f4        0xc 
 .text.__fputwc
                0x0000000000406900       0xb0 /usr/lib/gcc/arm-none-eabi/4.9.3/../../../arm-none-eabi/lib/armv7-m/libc.a(lib_a-fputwc.o)
                0x0000000000406900                __fputwc
 .text._fputwc_r
                0x00000000004069b0       0x24 /usr/lib/gcc/arm-none-eabi/4.9.3/../../../arm-none-eabi/lib/armv7-m/libc.a(lib_a-fputwc.o)
                0x00000000004069b0                _fputwc_r
 *fill*         0x00000000004069d4        0xc 
 .text._malloc_trim_r
                0x00000000004069e0       0x9c /usr/lib/gcc/arm-none-eabi/4.9.3/../../../arm-none-eabi/lib/armv7-m/libc.a(lib_a-freer.o)
                0x00000000004069e0                _malloc_trim_r
 *fill*         0x0000000000406a7c        0x4 
 .text._free_r  0x0000000000406a80      0x1b0 /usr/lib/gcc/arm-none-eabi/4.9.3/../../../arm-none-eabi/lib/armv7-m/libc.a(lib_a-freer.o)
                0x0000000000406a80                _free_r
 .text.__sfvwrite_r
                0x0000000000406c30      0x320 /usr/lib/gcc/arm-none-eabi/4.9.3/../../../arm-none-eabi/lib/armv7-m/libc.a(lib_a-fvwrite.o)
                0x0000000000406c30                __sfvwrite_r
 .text._fwalk_reent
                0x0000000000406f50       0x50 /usr/lib/gcc/arm-none-eabi/4.9.3/../../../arm-none-eabi/lib/armv7-m/libc.a(lib_a-fwalk.o)
                0x0000000000406f50                _fwalk_reent
 .text.__locale_charset
                0x0000000000406fa0        0x8 /usr/lib/gcc/arm-none-eabi/4.9.3/../../../arm-none-eabi/lib/armv7-m/libc.a(lib_a-locale.o)
                0x0000000000406fa0                __locale_charset
 *fill*         0x0000000000406fa8        0x8 
 .text.__locale_mb_cur_max
                0x0000000000406fb0        0xc /usr/lib/gcc/arm-none-eabi/4.9.3/../../../arm-none-eabi/lib/armv7-m/libc.a(lib_a-locale.o)
                0x0000000000406fb0                __locale_mb_cur_max
 *fill*         0x0000000000406fbc        0x4 
 .text.__smakebuf_r
                0x0000000000406fc0       0xe0 /usr/lib/gcc/arm-none-eabi/4.9.3/../../../arm-none-eabi/lib/armv7-m/libc.a(lib_a-makebuf.o)
                0x0000000000406fc0                __smakebuf_r
 .text._malloc_r
                0x00000000004070a0      0x50c /usr/lib/gcc/arm-none-eabi/4.9.3/../../../arm-none-eabi/lib/armv7-m/libc.a(lib_a-mallocr.o)
                0x00000000004070a0                _malloc_r
 *fill*         0x00000000004075ac        0x4 
 .text.memchr   0x00000000004075b0       0x94 /usr/lib/gcc/arm-none-eabi/4.9.3/../../../arm-none-eabi/lib/armv7-m/libc.a(lib_a-memchr.o)
                0x00000000004075b0                memchr
 *fill*         0x0000000000407644        0xc 
 .text.memmove  0x0000000000407650       0xc8 /usr/lib/gcc/arm-none-eabi/4.9.3/../../../arm-none-eabi/lib/armv7-m/libc.a(lib_a-memmove.o)
                0x0000000000407650                memmove
 *fill*         0x0000000000407718        0x8 
 .text.__malloc_lock
                0x0000000000407720        0x4 /usr/lib/gcc/arm-none-eabi/4.9.3/../../../arm-none-eabi/lib/armv7-m/libc.a(lib_a-mlock.o)
                0x0000000000407720                __malloc_lock
 *fill*         0x0000000000407724        0xc 
 .text.__malloc_unlock
                0x0000000000407730        0x4 /usr/lib/gcc/arm-none-eabi/4.9.3/../../../arm-none-eabi/lib/armv7-m/libc.a(lib_a-mlock.o)
                0x0000000000407730                __malloc_unlock
 *fill*         0x0000000000407734        0xc 
 .text._realloc_r
                0x0000000000407740      0x3e0 /usr/lib/gcc/arm-none-eabi/4.9.3/../../../arm-none-eabi/lib/armv7-m/libc.a(lib_a-reallocr.o)
                0x0000000000407740                _realloc_r
 .text.__sread  0x0000000000407b20       0x24 /usr/lib/gcc/arm-none-eabi/4.9.3/../../../arm-none-eabi/lib/armv7-m/libc.a(lib_a-stdio.o)
                0x0000000000407b20                __sread
 *fill*         0x0000000000407b44        0xc 
 .text.__swrite
                0x0000000000407b50       0x38 /usr/lib/gcc/arm-none-eabi/4.9.3/../../../arm-none-eabi/lib/armv7-m/libc.a(lib_a-stdio.o)
                0x0000000000407b50                __swrite
 *fill*         0x0000000000407b88        0x8 
 .text.__sseek  0x0000000000407b90       0x20 /usr/lib/gcc/arm-none-eabi/4.9.3/../../../arm-none-eabi/lib/armv7-m/libc.a(lib_a-stdio.o)
                0x0000000000407b90                __sseek
 .text.__sclose
                0x0000000000407bb0        0x8 /usr/lib/gcc/arm-none-eabi/4.9.3/../../../arm-none-eabi/lib/armv7-m/libc.a(lib_a-stdio.o)
                0x0000000000407bb0                __sclose
 *fill*         0x0000000000407bb8        0x8 
 .text.strlen   0x0000000000407bc0       0x5c /usr/lib/gcc/arm-none-eabi/4.9.3/../../../arm-none-eabi/lib/armv7-m/libc.a(lib_a-strlen.o)
                0x0000000000407bc0                strlen
 *fill*         0x0000000000407c1c        0x4 
 .text.__swbuf_r
                0x0000000000407c20       0xa8 /usr/lib/gcc/arm-none-eabi/4.9.3/../../../arm-none-eabi/lib/armv7-m/libc.a(lib_a-wbuf.o)
                0x0000000000407c20                __swbuf_r
 *fill*         0x0000000000407cc8        0x8 
 .text._wcrtomb_r
                0x0000000000407cd0       0x54 /usr/lib/gcc/arm-none-eabi/4.9.3/../../../arm-none-eabi/lib/armv7-m/libc.a(lib_a-wcrtomb.o)
                0x0000000000407cd0                _wcrtomb_r
 *fill*         0x0000000000407d24        0xc 
 .text.__ascii_wctomb
                0x0000000000407d30       0x1c /usr/lib/gcc/arm-none-eabi/4.9.3/../../../arm-none-eabi/lib/armv7-m/libc.a(lib_a-wctomb_r.o)
                0x0000000000407d30                __ascii_wctomb
 *fill*         0x0000000000407d4c        0x4 
 .text._fclose_r
                0x0000000000407d50       0x84 /usr/lib/gcc/arm-none-eabi/4.9.3/../../../arm-none-eabi/lib/armv7-m/libc.a(lib_a-fclose.o)
                0x0000000000407d50                _fclose_r
 *(.rodata)
 *(.rodata.*)
 *fill*         0x0000000000407dd4        0xc 
 .rodata.str1.4
                0x0000000000407de0        0xd build/obj/chsys.o
 *fill*         0x0000000000407ded        0x3 
 .rodata.vmt    0x0000000000407df0       0x24 build/obj/serial.o
 *fill*         0x0000000000407e14        0xc 
 .rodata.default_config
                0x0000000000407e20        0x8 build/obj/serial_lld.o
 *fill*         0x0000000000407e28        0x8 
 .rodata.__func__.4792
                0x0000000000407e30       0x15 build/obj/pmc.o
 *fill*         0x0000000000407e45        0xb 
 .rodata.str1.4
                0x0000000000407e50       0x42 build/obj/pmc.o
 *fill*         0x0000000000407e92        0xe 
 .rodata.__func__.4883
                0x0000000000407ea0        0xf build/obj/atmel_twi.o
 *fill*         0x0000000000407eaf        0x1 
 .rodata.__func__.4915
                0x0000000000407eb0       0x16 build/obj/atmel_twi.o
 *fill*         0x0000000000407ec6        0xa 
 .rodata.__func__.4840
                0x0000000000407ed0       0x14 build/obj/atmel_twi.o
 *fill*         0x0000000000407ee4        0xc 
 .rodata.__func__.4897
                0x0000000000407ef0        0xd build/obj/atmel_twi.o
 *fill*         0x0000000000407efd        0x3 
 .rodata.str1.4
                0x0000000000407f00       0xf0 build/obj/atmel_twi.o
 .rodata.__func__.4859
                0x0000000000407ff0        0x9 build/obj/atmel_twi.o
 *fill*         0x0000000000407ff9        0x7 
 .rodata.__func__.4870
                0x0000000000408000        0xd build/obj/atmel_twi.o
 *fill*         0x000000000040800d        0x3 
 .rodata.__func__.4866
                0x0000000000408010        0xe build/obj/atmel_twi.o
 *fill*         0x000000000040801e        0x2 
 .rodata.__func__.4875
                0x0000000000408020        0xe build/obj/atmel_twi.o
 *fill*         0x000000000040802e        0x2 
 .rodata.__func__.4895
                0x0000000000408030        0xa build/obj/atmel_twid.o
 *fill*         0x000000000040803a        0x6 
 .rodata.str1.4
                0x0000000000408040       0x3f build/obj/atmel_twid.o
                                         0x82 (size before relaxing)
 *fill*         0x000000000040807f        0x1 
 .rodata.__func__.4917
                0x0000000000408080        0xb build/obj/atmel_twid.o
 *fill*         0x000000000040808b        0x5 
 .rodata.pal_default_config
                0x0000000000408090       0x24 build/obj/board.o
                0x0000000000408090                pal_default_config
 *fill*         0x00000000004080b4        0xc 
 .rodata._ZN7creatorL4pinsE
                0x00000000004080c0       0x18 build/obj/i2c.o
 *fill*         0x00000000004080d8        0x8 
 .rodata.CSWTCH.36
                0x00000000004080e0        0x9 build/obj/lsm9ds1.o
 *fill*         0x00000000004080e9        0x7 
 .rodata.CSWTCH.52
                0x00000000004080f0       0x50 build/obj/main.o
 .rodata._ZL8pinPsram
                0x0000000000408140       0x3c build/obj/main.o
 *fill*         0x000000000040817c        0x4 
 .rodata.str1.4
                0x0000000000408180        0x5 /usr/lib/gcc/arm-none-eabi/4.9.3/../../../arm-none-eabi/lib/armv7-m/libm.a(lib_a-w_sqrt.o)
                                          0x8 (size before relaxing)
 *fill*         0x0000000000408185        0xb 
 .rodata.atanlo
                0x0000000000408190       0x20 /usr/lib/gcc/arm-none-eabi/4.9.3/../../../arm-none-eabi/lib/armv7-m/libm.a(lib_a-s_atan.o)
 .rodata.atanhi
                0x00000000004081b0       0x20 /usr/lib/gcc/arm-none-eabi/4.9.3/../../../arm-none-eabi/lib/armv7-m/libm.a(lib_a-s_atan.o)
 .rodata.str1.4
                0x00000000004081d0       0x3f /usr/lib/gcc/arm-none-eabi/4.9.3/../../../arm-none-eabi/lib/armv7-m/libc.a(lib_a-assert.o)
                                         0x44 (size before relaxing)
 *fill*         0x000000000040820f        0x1 
 .rodata.str1.4
                0x0000000000408210        0x2 /usr/lib/gcc/arm-none-eabi/4.9.3/../../../arm-none-eabi/lib/armv7-m/libc.a(lib_a-impure.o)
                                          0x4 (size before relaxing)
 *fill*         0x0000000000408212        0xe 
 .rodata.zeroes.6869
                0x0000000000408220       0x10 /usr/lib/gcc/arm-none-eabi/4.9.3/../../../arm-none-eabi/lib/armv7-m/libc.a(lib_a-vfiprintf.o)
 .rodata.str1.4
                0x0000000000408230       0x30 /usr/lib/gcc/arm-none-eabi/4.9.3/../../../arm-none-eabi/lib/armv7-m/libc.a(lib_a-vfiprintf.o)
 .rodata.blanks.6868
                0x0000000000408260       0x10 /usr/lib/gcc/arm-none-eabi/4.9.3/../../../arm-none-eabi/lib/armv7-m/libc.a(lib_a-vfiprintf.o)
 *(.glue_7t)
 .glue_7t       0x0000000000408270        0x0 linker stubs
 *(.glue_7)
 .glue_7        0x0000000000408270        0x0 linker stubs
 *(.gcc*)

.vfp11_veneer   0x0000000000408270        0x0
 .vfp11_veneer  0x0000000000408270        0x0 linker stubs

.v4_bx          0x0000000000408270        0x0
 .v4_bx         0x0000000000408270        0x0 linker stubs

.iplt           0x0000000000408270        0x0
 .iplt          0x0000000000408270        0x0 build/obj/crt0.o

.ARM.extab      0x0000000000408270       0x18
 *(.ARM.extab* .gnu.linkonce.armextab.*)
 .ARM.extab     0x0000000000408270       0x18 /usr/lib/gcc/arm-none-eabi/4.9.3/armv7-m/libgcc.a(pr-support.o)

.ARM.exidx      0x0000000000408288      0x130
                0x0000000000408288                PROVIDE (__exidx_start, .)
 *(.ARM.exidx* .gnu.linkonce.armexidx.*)
 .ARM.exidx.text._ZN7creator3I2C4InitEv
                0x0000000000408348        0x8 build/obj/i2c.o
 .ARM.exidx.text._ZN7creator3I2C9WriteByteEhhh
                0x0000000000408350        0x8 build/obj/i2c.o
 .ARM.exidx.text._ZN7creator3I2C8ReadByteEhh
                0x0000000000408358        0x8 build/obj/i2c.o
 .ARM.exidx.text._ZN7creator3I2C9ReadBytesEhhPhh
                0x0000000000408360        0x8 build/obj/i2c.o
 .ARM.exidx.text._ZN7LSM9DS14initE14interface_modehh
                0x0000000000408368        0x8 build/obj/lsm9ds1.o
 .ARM.exidx.text._ZN7LSM9DS1C2EPN7creator3I2CE14interface_modehh
                0x0000000000408370        0x0 build/obj/lsm9ds1.o
                                          0x8 (size before relaxing)
 .ARM.exidx.text._ZN7LSM9DS18initGyroEv
                0x0000000000408370        0x8 build/obj/lsm9ds1.o
 .ARM.exidx.text._ZN7LSM9DS19initAccelEv
                0x0000000000408378        0x0 build/obj/lsm9ds1.o
                                          0x8 (size before relaxing)
 .ARM.exidx.text._ZN7LSM9DS17initMagEv
                0x0000000000408378        0x0 build/obj/lsm9ds1.o
                                          0x8 (size before relaxing)
 .ARM.exidx.text._ZN7LSM9DS19readAccelEv
                0x0000000000408378        0x8 build/obj/lsm9ds1.o
 .ARM.exidx.text._ZN7LSM9DS17readMagEv
                0x0000000000408380        0x8 build/obj/lsm9ds1.o
 .ARM.exidx.text._ZN7LSM9DS18readGyroEv
                0x0000000000408388        0x8 build/obj/lsm9ds1.o
 .ARM.exidx.text._ZN7LSM9DS18calcGyroEs
                0x0000000000408390        0x8 build/obj/lsm9ds1.o
 .ARM.exidx.text._ZN7LSM9DS19calcAccelEs
                0x0000000000408398        0x0 build/obj/lsm9ds1.o
                                          0x8 (size before relaxing)
 .ARM.exidx.text._ZN7LSM9DS17calcMagEs
                0x0000000000408398        0x0 build/obj/lsm9ds1.o
                                          0x8 (size before relaxing)
 .ARM.exidx.text._ZN7LSM9DS18calcmResEv
                0x0000000000408398        0x0 build/obj/lsm9ds1.o
                                          0x8 (size before relaxing)
 .ARM.exidx.text._ZN7LSM9DS115constrainScalesEv
                0x0000000000408398        0x0 build/obj/lsm9ds1.o
                                          0x8 (size before relaxing)
 .ARM.exidx.text._ZN7LSM9DS15beginEv
                0x0000000000408398        0x8 build/obj/lsm9ds1.o
 .ARM.exidx.text._Z13calculate_pidv
                0x00000000004083a0        0x8 build/obj/main.o
 .ARM.exidx.text._Z8set_dutyP7PWMDatacccc
                0x00000000004083a8        0x0 build/obj/main.o
                                          0x8 (size before relaxing)
 .ARM.exidx.text._Z10initMotorsP7PWMData
                0x00000000004083a8        0x0 build/obj/main.o
                                          0x8 (size before relaxing)
 .ARM.exidx.text._Z8plusDutyP7PWMDatai
                0x00000000004083a8        0x0 build/obj/main.o
                                          0x8 (size before relaxing)
 .ARM.exidx.text._ZL9IMUThreadPv
                0x00000000004083a8       0x10 build/obj/main.o
                                          0x8 (size before relaxing)
 .ARM.exidx.text.startup.main
                0x0000000000408288        0x8 build/obj/main.o
 .ARM.exidx.text.startup._GLOBAL__sub_I_ptr
                0x0000000000408290        0x8 build/obj/main.o
 .ARM.exidx     0x0000000000408298       0x78 /usr/lib/gcc/arm-none-eabi/4.9.3/armv7-m/libgcc.a(unwind-arm.o)
                                         0xd8 (size before relaxing)
 .ARM.exidx     0x0000000000408310       0x38 /usr/lib/gcc/arm-none-eabi/4.9.3/armv7-m/libgcc.a(pr-support.o)
                                         0x48 (size before relaxing)
 .ARM.exidx     0x0000000000408348        0x0 /usr/lib/gcc/arm-none-eabi/4.9.3/armv7-m/libgcc.a(_divdi3.o)
                                          0x8 (size before relaxing)
 .ARM.exidx     0x0000000000408348        0x0 /usr/lib/gcc/arm-none-eabi/4.9.3/armv7-m/libgcc.a(_udivdi3.o)
                                          0x8 (size before relaxing)
                0x00000000004083b8                PROVIDE (__exidx_end, .)

.rel.dyn        0x00000000004083b8        0x0
 .rel.iplt      0x00000000004083b8        0x0 build/obj/crt0.o

.eh_frame_hdr
 *(.eh_frame_hdr)

.eh_frame
 *(.eh_frame)

.textalign      0x00000000004083b8        0x0
                0x00000000004083b8                . = ALIGN (0x8)
                0x00000000004083b8                _etext = .
                0x00000000004083b8                _textdata = _etext

.stacks         0x0000000020000000      0x800
                0x0000000020000000                . = ALIGN (0x8)
                0x0000000020000000                __main_stack_base__ = .
                0x0000000020000400                . = (. + __main_stack_size__)
 *fill*         0x0000000020000000      0x400 
                0x0000000020000400                . = ALIGN (0x8)
                0x0000000020000400                __main_stack_end__ = .
                0x0000000020000400                __process_stack_base__ = .
                0x0000000020000400                __main_thread_stack_base__ = .
                0x0000000020000800                . = (. + __process_stack_size__)
 *fill*         0x0000000020000400      0x400 
                0x0000000020000800                . = ALIGN (0x8)
                0x0000000020000800                __process_stack_end__ = .
                0x0000000020000800                __main_thread_stack_end__ = .

.data           0x0000000020000800      0x8a4 load address 0x00000000004083b8
                0x0000000020000800                . = ALIGN (0x4)
                0x0000000020000800                PROVIDE (_data, .)
 *(.data)
                0x0000000020000800                . = ALIGN (0x4)
 *(.data.*)
 .data.SystemCoreClock
                0x0000000020000800        0x4 build/obj/system_SAM3.o
                0x0000000020000800                SystemCoreClock
 .data.magSensitivity
                0x0000000020000804       0x10 build/obj/lsm9ds1.o
                0x0000000020000804                magSensitivity
 .data.pid_roll_setpoint
                0x0000000020000814        0x4 build/obj/main.o
                0x0000000020000814                pid_roll_setpoint
 .data.pid_i_gain_roll
                0x0000000020000818        0x4 build/obj/main.o
                0x0000000020000818                pid_i_gain_roll
 .data.maxPwm   0x000000002000081c        0x4 build/obj/main.o
                0x000000002000081c                maxPwm
 .data.pid_d_gain_roll
                0x0000000020000820        0x4 build/obj/main.o
                0x0000000020000820                pid_d_gain_roll
 .data.minPwm   0x0000000020000824        0x4 build/obj/main.o
                0x0000000020000824                minPwm
 .data.pid_max_roll
                0x0000000020000828        0x4 build/obj/main.o
                0x0000000020000828                pid_max_roll
 .data.pid_pitch_setpoint
                0x000000002000082c        0x4 build/obj/main.o
                0x000000002000082c                pid_pitch_setpoint
 .data.pid_p_gain_roll
                0x0000000020000830        0x4 build/obj/main.o
                0x0000000020000830                pid_p_gain_roll
 .data.ptr      0x0000000020000834        0x4 build/obj/main.o
                0x0000000020000834                ptr
 .data.__fdlib_version
                0x0000000020000838        0x1 /usr/lib/gcc/arm-none-eabi/4.9.3/../../../arm-none-eabi/lib/armv7-m/libm.a(lib_a-s_lib_ver.o)
                0x0000000020000838                __fdlib_version
 *fill*         0x0000000020000839        0x7 
 .data.impure_data
                0x0000000020000840      0x428 /usr/lib/gcc/arm-none-eabi/4.9.3/../../../arm-none-eabi/lib/armv7-m/libc.a(lib_a-impure.o)
 .data._impure_ptr
                0x0000000020000c68        0x4 /usr/lib/gcc/arm-none-eabi/4.9.3/../../../arm-none-eabi/lib/armv7-m/libc.a(lib_a-impure.o)
                0x0000000020000c68                _impure_ptr
 .data.lc_ctype_charset
                0x0000000020000c6c       0x20 /usr/lib/gcc/arm-none-eabi/4.9.3/../../../arm-none-eabi/lib/armv7-m/libc.a(lib_a-locale.o)
 .data.__mb_cur_max
                0x0000000020000c8c        0x4 /usr/lib/gcc/arm-none-eabi/4.9.3/../../../arm-none-eabi/lib/armv7-m/libc.a(lib_a-locale.o)
                0x0000000020000c8c                __mb_cur_max
 .data.__malloc_av_
                0x0000000020000c90      0x408 /usr/lib/gcc/arm-none-eabi/4.9.3/../../../arm-none-eabi/lib/armv7-m/libc.a(lib_a-mallocr.o)
                0x0000000020000c90                __malloc_av_
 .data.__malloc_trim_threshold
                0x0000000020001098        0x4 /usr/lib/gcc/arm-none-eabi/4.9.3/../../../arm-none-eabi/lib/armv7-m/libc.a(lib_a-mallocr.o)
                0x0000000020001098                __malloc_trim_threshold
 .data.__malloc_sbrk_base
                0x000000002000109c        0x4 /usr/lib/gcc/arm-none-eabi/4.9.3/../../../arm-none-eabi/lib/armv7-m/libc.a(lib_a-mallocr.o)
                0x000000002000109c                __malloc_sbrk_base
 .data.__wctomb
                0x00000000200010a0        0x4 /usr/lib/gcc/arm-none-eabi/4.9.3/../../../arm-none-eabi/lib/armv7-m/libc.a(lib_a-wctomb_r.o)
                0x00000000200010a0                __wctomb
                0x00000000200010a4                . = ALIGN (0x4)
 *(.ramtext)
                0x00000000200010a4                . = ALIGN (0x4)
                0x00000000200010a4                PROVIDE (_edata, .)

.igot.plt       0x00000000200010a4        0x0 load address 0x0000000000408c5c
 .igot.plt      0x00000000200010a4        0x0 build/obj/crt0.o

.bss            0x00000000200010a8      0x594 load address 0x0000000000408c5c
                0x00000000200010a8                . = ALIGN (0x4)
                0x00000000200010a8                PROVIDE (_bss_start, .)
 *(.bss)
                0x00000000200010a8                . = ALIGN (0x4)
 *(.bss.*)
 .bss.mainthread.4837
                0x00000000200010a8       0x48 build/obj/chsys.o
 .bss._idle_thread_wa
                0x00000000200010f0       0xc0 build/obj/chsys.o
                0x00000000200010f0                _idle_thread_wa
 .bss.vtlist    0x00000000200011b0       0x10 build/obj/chvt.o
                0x00000000200011b0                vtlist
 .bss.rlist     0x00000000200011c0       0x20 build/obj/chschd.o
                0x00000000200011c0                rlist
 .bss.endmem    0x00000000200011e0        0x4 build/obj/chmemcore.o
 .bss.nextmem   0x00000000200011e4        0x4 build/obj/chmemcore.o
 .bss.default_heap
                0x00000000200011e8       0x20 build/obj/chheap.o
 .bss.SD1       0x0000000020001208       0x74 build/obj/serial_lld.o
                0x0000000020001208                SD1
 .bss.SD2       0x000000002000127c       0x74 build/obj/serial_lld.o
                0x000000002000127c                SD2
 .bss.pid_i_gain_pitch
                0x00000000200012f0        0x4 build/obj/main.o
                0x00000000200012f0                pid_i_gain_pitch
 .bss.pid_output_roll
                0x00000000200012f4        0x4 build/obj/main.o
                0x00000000200012f4                pid_output_roll
 .bss.pid_i_mem_roll
                0x00000000200012f8        0x4 build/obj/main.o
                0x00000000200012f8                pid_i_mem_roll
 .bss.pid_output_pitch
                0x00000000200012fc        0x4 build/obj/main.o
                0x00000000200012fc                pid_output_pitch
 .bss.pid_last_roll_d_error
                0x0000000020001300        0x4 build/obj/main.o
                0x0000000020001300                pid_last_roll_d_error
 .bss.dataimu   0x0000000020001304       0x30 build/obj/main.o
                0x0000000020001304                dataimu
 .bss.pid_p_gain_pitch
                0x0000000020001334        0x4 build/obj/main.o
                0x0000000020001334                pid_p_gain_pitch
 .bss.pid_i_mem_pitch
                0x0000000020001338        0x4 build/obj/main.o
                0x0000000020001338                pid_i_mem_pitch
 .bss.pid_max_pitch
                0x000000002000133c        0x4 build/obj/main.o
                0x000000002000133c                pid_max_pitch
 .bss.pid_last_pitch_d_error
                0x0000000020001340        0x4 build/obj/main.o
                0x0000000020001340                pid_last_pitch_d_error
 *fill*         0x0000000020001344        0x4 
 .bss._ZL11waIMUThread
                0x0000000020001348      0x2b0 build/obj/main.o
 .bss.pid_d_gain_pitch
                0x00000000200015f8        0x4 build/obj/main.o
                0x00000000200015f8                pid_d_gain_pitch
 .bss.i2c       0x00000000200015fc        0x8 build/obj/main.o
                0x00000000200015fc                i2c
 .bss.__malloc_max_total_mem
                0x0000000020001604        0x4 /usr/lib/gcc/arm-none-eabi/4.9.3/../../../arm-none-eabi/lib/armv7-m/libc.a(lib_a-mallocr.o)
                0x0000000020001604                __malloc_max_total_mem
 .bss.__malloc_max_sbrked_mem
                0x0000000020001608        0x4 /usr/lib/gcc/arm-none-eabi/4.9.3/../../../arm-none-eabi/lib/armv7-m/libc.a(lib_a-mallocr.o)
                0x0000000020001608                __malloc_max_sbrked_mem
 .bss.__malloc_top_pad
                0x000000002000160c        0x4 /usr/lib/gcc/arm-none-eabi/4.9.3/../../../arm-none-eabi/lib/armv7-m/libc.a(lib_a-mallocr.o)
                0x000000002000160c                __malloc_top_pad
 .bss.__malloc_current_mallinfo
                0x0000000020001610       0x28 /usr/lib/gcc/arm-none-eabi/4.9.3/../../../arm-none-eabi/lib/armv7-m/libc.a(lib_a-mallocr.o)
                0x0000000020001610                __malloc_current_mallinfo
                0x0000000020001638                . = ALIGN (0x4)
 *(COMMON)
 COMMON         0x0000000020001638        0x4 /usr/lib/gcc/arm-none-eabi/4.9.3/../../../arm-none-eabi/lib/armv7-m/libc.a(lib_a-reent.o)
                0x0000000020001638                errno
                0x000000002000163c                . = ALIGN (0x4)
                0x000000002000163c                PROVIDE (_bss_end, .)
                [!provide]                        PROVIDE (end, .)
                0x000000002000163c                _end = .
                0x000000002000163c                __heap_base__ = _end
                0x0000000020008000                __heap_end__ = __ram_end__
OUTPUT(build/ch.elf elf32-littlearm)

.debug_info     0x0000000000000000    0x27eb1
 .debug_info    0x0000000000000000      0x2f2 build/obj/crt0.o
 .debug_info    0x00000000000002f2       0xb3 build/obj/vectors.o
 .debug_info    0x00000000000003a5      0x815 build/obj/chcore_v7m.o
 .debug_info    0x0000000000000bba      0x3ff build/obj/nvic.o
 .debug_info    0x0000000000000fb9      0x6bf build/obj/chsys.o
 .debug_info    0x0000000000001678      0x262 build/obj/chvt.o
 .debug_info    0x00000000000018da      0x8d3 build/obj/chschd.o
 .debug_info    0x00000000000021ad      0xbe1 build/obj/chthreads.o
 .debug_info    0x0000000000002d8e      0x9ec build/obj/chmtx.o
 .debug_info    0x000000000000377a      0xcc8 build/obj/chevents.o
 .debug_info    0x0000000000004442      0xbb3 build/obj/chqueues.o
 .debug_info    0x0000000000004ff5      0x218 build/obj/chmemcore.o
 .debug_info    0x000000000000520d      0x6db build/obj/chheap.o
 .debug_info    0x00000000000058e8      0x188 build/obj/hal.o
 .debug_info    0x0000000000005a70     0x10e9 build/obj/serial.o
 .debug_info    0x0000000000006b59      0x177 build/obj/hal_lld.o
 .debug_info    0x0000000000006cd0      0x42e build/obj/system_SAM3.o
 .debug_info    0x00000000000070fe      0x88c build/obj/pal_lld.o
 .debug_info    0x000000000000798a     0x1594 build/obj/serial_lld.o
 .debug_info    0x0000000000008f1e      0x9e9 build/obj/pio.o
 .debug_info    0x0000000000009907      0x5a8 build/obj/pmc.o
 .debug_info    0x0000000000009eaf      0xb97 build/obj/atmel_twi.o
 .debug_info    0x000000000000aa46      0xa20 build/obj/atmel_twid.o
 .debug_info    0x000000000000b466      0x222 build/obj/atmel_psram.o
 .debug_info    0x000000000000b688      0x735 build/obj/board.o
 .debug_info    0x000000000000bdbd      0xc8d build/obj/syscalls.o
 .debug_info    0x000000000000ca4a     0x1052 build/obj/i2c.o
 .debug_info    0x000000000000da9c     0x3697 build/obj/lsm9ds1.o
 .debug_info    0x0000000000011133     0x3092 build/obj/main.o
 .debug_info    0x00000000000141c5       0xff /usr/lib/gcc/arm-none-eabi/4.9.3/../../../arm-none-eabi/lib/armv7-m/libm.a(lib_a-w_atan2.o)
 .debug_info    0x00000000000142c4      0x208 /usr/lib/gcc/arm-none-eabi/4.9.3/../../../arm-none-eabi/lib/armv7-m/libm.a(lib_a-w_sqrt.o)
 .debug_info    0x00000000000144cc      0x2ad /usr/lib/gcc/arm-none-eabi/4.9.3/../../../arm-none-eabi/lib/armv7-m/libm.a(lib_a-e_atan2.o)
 .debug_info    0x0000000000014779      0x22d /usr/lib/gcc/arm-none-eabi/4.9.3/../../../arm-none-eabi/lib/armv7-m/libm.a(lib_a-e_sqrt.o)
 .debug_info    0x00000000000149a6      0x2ab /usr/lib/gcc/arm-none-eabi/4.9.3/../../../arm-none-eabi/lib/armv7-m/libm.a(lib_a-s_atan.o)
 .debug_info    0x0000000000014c51      0x13a /usr/lib/gcc/arm-none-eabi/4.9.3/../../../arm-none-eabi/lib/armv7-m/libm.a(lib_a-s_fabs.o)
 .debug_info    0x0000000000014d8b       0xd3 /usr/lib/gcc/arm-none-eabi/4.9.3/../../../arm-none-eabi/lib/armv7-m/libm.a(lib_a-s_fpclassify.o)
 .debug_info    0x0000000000014e5e       0xbe /usr/lib/gcc/arm-none-eabi/4.9.3/../../../arm-none-eabi/lib/armv7-m/libm.a(lib_a-s_lib_ver.o)
 .debug_info    0x0000000000014f1c      0x129 /usr/lib/gcc/arm-none-eabi/4.9.3/../../../arm-none-eabi/lib/armv7-m/libm.a(lib_a-s_matherr.o)
 .debug_info    0x0000000000015045       0xba /usr/lib/gcc/arm-none-eabi/4.9.3/armv7-m/libgcc.a(_arm_addsubdf3.o)
 .debug_info    0x00000000000150ff       0xba /usr/lib/gcc/arm-none-eabi/4.9.3/armv7-m/libgcc.a(_arm_muldivdf3.o)
 .debug_info    0x00000000000151b9       0xba /usr/lib/gcc/arm-none-eabi/4.9.3/armv7-m/libgcc.a(_arm_cmpdf2.o)
 .debug_info    0x0000000000015273       0xba /usr/lib/gcc/arm-none-eabi/4.9.3/armv7-m/libgcc.a(_arm_truncdfsf2.o)
 .debug_info    0x000000000001532d       0xba /usr/lib/gcc/arm-none-eabi/4.9.3/armv7-m/libgcc.a(_arm_addsubsf3.o)
 .debug_info    0x00000000000153e7       0xba /usr/lib/gcc/arm-none-eabi/4.9.3/armv7-m/libgcc.a(_arm_muldivsf3.o)
 .debug_info    0x00000000000154a1       0xba /usr/lib/gcc/arm-none-eabi/4.9.3/armv7-m/libgcc.a(_arm_cmpsf2.o)
 .debug_info    0x000000000001555b       0xba /usr/lib/gcc/arm-none-eabi/4.9.3/armv7-m/libgcc.a(_arm_fixsfsi.o)
 .debug_info    0x0000000000015615       0xd4 /usr/lib/gcc/arm-none-eabi/4.9.3/../../../arm-none-eabi/lib/armv7-m/libc.a(lib_a-abort.o)
 .debug_info    0x00000000000156e9      0x997 /usr/lib/gcc/arm-none-eabi/4.9.3/../../../arm-none-eabi/lib/armv7-m/libc.a(lib_a-assert.o)
 .debug_info    0x0000000000016080      0x889 /usr/lib/gcc/arm-none-eabi/4.9.3/../../../arm-none-eabi/lib/armv7-m/libc.a(lib_a-errno.o)
 .debug_info    0x0000000000016909      0x9c3 /usr/lib/gcc/arm-none-eabi/4.9.3/../../../arm-none-eabi/lib/armv7-m/libc.a(lib_a-fiprintf.o)
 .debug_info    0x00000000000172cc      0x894 /usr/lib/gcc/arm-none-eabi/4.9.3/../../../arm-none-eabi/lib/armv7-m/libc.a(lib_a-impure.o)
 .debug_info    0x0000000000017b60       0xcd /usr/lib/gcc/arm-none-eabi/4.9.3/../../../arm-none-eabi/lib/armv7-m/libc.a(lib_a-memcpy.o)
 .debug_info    0x0000000000017c2d      0x117 /usr/lib/gcc/arm-none-eabi/4.9.3/../../../arm-none-eabi/lib/armv7-m/libc.a(lib_a-memset.o)
 .debug_info    0x0000000000017d44      0xbad /usr/lib/gcc/arm-none-eabi/4.9.3/../../../arm-none-eabi/lib/armv7-m/libc.a(lib_a-signal.o)
 .debug_info    0x00000000000188f1      0x956 /usr/lib/gcc/arm-none-eabi/4.9.3/../../../arm-none-eabi/lib/armv7-m/libc.a(lib_a-signalr.o)
 .debug_info    0x0000000000019247     0x152f /usr/lib/gcc/arm-none-eabi/4.9.3/../../../arm-none-eabi/lib/armv7-m/libc.a(lib_a-vfiprintf.o)
 .debug_info    0x000000000001a776      0x93b /usr/lib/gcc/arm-none-eabi/4.9.3/../../../arm-none-eabi/lib/armv7-m/libc.a(lib_a-wsetup.o)
 .debug_info    0x000000000001b0b1      0xab3 /usr/lib/gcc/arm-none-eabi/4.9.3/../../../arm-none-eabi/lib/armv7-m/libc.a(lib_a-fflush.o)
 .debug_info    0x000000000001bb64      0xdc0 /usr/lib/gcc/arm-none-eabi/4.9.3/../../../arm-none-eabi/lib/armv7-m/libc.a(lib_a-findfp.o)
 .debug_info    0x000000000001c924      0xacc /usr/lib/gcc/arm-none-eabi/4.9.3/../../../arm-none-eabi/lib/armv7-m/libc.a(lib_a-fputwc.o)
 .debug_info    0x000000000001d3f0      0xc1c /usr/lib/gcc/arm-none-eabi/4.9.3/../../../arm-none-eabi/lib/armv7-m/libc.a(lib_a-freer.o)
 .debug_info    0x000000000001e00c      0xc63 /usr/lib/gcc/arm-none-eabi/4.9.3/../../../arm-none-eabi/lib/armv7-m/libc.a(lib_a-fvwrite.o)
 .debug_info    0x000000000001ec6f      0x99e /usr/lib/gcc/arm-none-eabi/4.9.3/../../../arm-none-eabi/lib/armv7-m/libc.a(lib_a-fwalk.o)
 .debug_info    0x000000000001f60d      0xc24 /usr/lib/gcc/arm-none-eabi/4.9.3/../../../arm-none-eabi/lib/armv7-m/libc.a(lib_a-locale.o)
 .debug_info    0x0000000000020231      0xae6 /usr/lib/gcc/arm-none-eabi/4.9.3/../../../arm-none-eabi/lib/armv7-m/libc.a(lib_a-makebuf.o)
 .debug_info    0x0000000000020d17      0xd77 /usr/lib/gcc/arm-none-eabi/4.9.3/../../../arm-none-eabi/lib/armv7-m/libc.a(lib_a-mallocr.o)
 .debug_info    0x0000000000021a8e      0x129 /usr/lib/gcc/arm-none-eabi/4.9.3/../../../arm-none-eabi/lib/armv7-m/libc.a(lib_a-memchr.o)
 .debug_info    0x0000000000021bb7      0x131 /usr/lib/gcc/arm-none-eabi/4.9.3/../../../arm-none-eabi/lib/armv7-m/libc.a(lib_a-memmove.o)
 .debug_info    0x0000000000021ce8      0x8b4 /usr/lib/gcc/arm-none-eabi/4.9.3/../../../arm-none-eabi/lib/armv7-m/libc.a(lib_a-mlock.o)
 .debug_info    0x000000000002259c      0xcb3 /usr/lib/gcc/arm-none-eabi/4.9.3/../../../arm-none-eabi/lib/armv7-m/libc.a(lib_a-reallocr.o)
 .debug_info    0x000000000002324f      0x9fb /usr/lib/gcc/arm-none-eabi/4.9.3/../../../arm-none-eabi/lib/armv7-m/libc.a(lib_a-reent.o)
 .debug_info    0x0000000000023c4a      0xb8a /usr/lib/gcc/arm-none-eabi/4.9.3/../../../arm-none-eabi/lib/armv7-m/libc.a(lib_a-stdio.o)
 .debug_info    0x00000000000247d4       0xb5 /usr/lib/gcc/arm-none-eabi/4.9.3/../../../arm-none-eabi/lib/armv7-m/libc.a(lib_a-strlen.o)
 .debug_info    0x0000000000024889      0x9cc /usr/lib/gcc/arm-none-eabi/4.9.3/../../../arm-none-eabi/lib/armv7-m/libc.a(lib_a-wbuf.o)
 .debug_info    0x0000000000025255      0xa75 /usr/lib/gcc/arm-none-eabi/4.9.3/../../../arm-none-eabi/lib/armv7-m/libc.a(lib_a-wcrtomb.o)
 .debug_info    0x0000000000025cca      0x9b5 /usr/lib/gcc/arm-none-eabi/4.9.3/../../../arm-none-eabi/lib/armv7-m/libc.a(lib_a-wctomb_r.o)
 .debug_info    0x000000000002667f      0xa28 /usr/lib/gcc/arm-none-eabi/4.9.3/../../../arm-none-eabi/lib/armv7-m/libc.a(lib_a-fclose.o)
 .debug_info    0x00000000000270a7       0xb5 /usr/lib/gcc/arm-none-eabi/4.9.3/armv7-m/libgcc.a(_aeabi_uldivmod.o)
 .debug_info    0x000000000002715c      0x164 /usr/lib/gcc/arm-none-eabi/4.9.3/armv7-m/libgcc.a(bpabi.o)
 .debug_info    0x00000000000272c0       0xb9 /usr/lib/gcc/arm-none-eabi/4.9.3/armv7-m/libgcc.a(_dvmd_tls.o)
 .debug_info    0x0000000000027379      0x5bc /usr/lib/gcc/arm-none-eabi/4.9.3/armv7-m/libgcc.a(_divdi3.o)
 .debug_info    0x0000000000027935      0x57c /usr/lib/gcc/arm-none-eabi/4.9.3/armv7-m/libgcc.a(_udivdi3.o)

.debug_abbrev   0x0000000000000000     0x8752
 .debug_abbrev  0x0000000000000000      0x13a build/obj/crt0.o
 .debug_abbrev  0x000000000000013a       0x75 build/obj/vectors.o
 .debug_abbrev  0x00000000000001af      0x23f build/obj/chcore_v7m.o
 .debug_abbrev  0x00000000000003ee      0x10e build/obj/nvic.o
 .debug_abbrev  0x00000000000004fc      0x211 build/obj/chsys.o
 .debug_abbrev  0x000000000000070d      0x133 build/obj/chvt.o
 .debug_abbrev  0x0000000000000840      0x311 build/obj/chschd.o
 .debug_abbrev  0x0000000000000b51      0x335 build/obj/chthreads.o
 .debug_abbrev  0x0000000000000e86      0x303 build/obj/chmtx.o
 .debug_abbrev  0x0000000000001189      0x2c2 build/obj/chevents.o
 .debug_abbrev  0x000000000000144b      0x335 build/obj/chqueues.o
 .debug_abbrev  0x0000000000001780      0x15b build/obj/chmemcore.o
 .debug_abbrev  0x00000000000018db      0x1e7 build/obj/chheap.o
 .debug_abbrev  0x0000000000001ac2      0x10a build/obj/hal.o
 .debug_abbrev  0x0000000000001bcc      0x2c0 build/obj/serial.o
 .debug_abbrev  0x0000000000001e8c      0x114 build/obj/hal_lld.o
 .debug_abbrev  0x0000000000001fa0       0xe3 build/obj/system_SAM3.o
 .debug_abbrev  0x0000000000002083      0x11b build/obj/pal_lld.o
 .debug_abbrev  0x000000000000219e      0x3c2 build/obj/serial_lld.o
 .debug_abbrev  0x0000000000002560      0x1f4 build/obj/pio.o
 .debug_abbrev  0x0000000000002754      0x15e build/obj/pmc.o
 .debug_abbrev  0x00000000000028b2      0x21a build/obj/atmel_twi.o
 .debug_abbrev  0x0000000000002acc      0x22c build/obj/atmel_twid.o
 .debug_abbrev  0x0000000000002cf8      0x10e build/obj/atmel_psram.o
 .debug_abbrev  0x0000000000002e06      0x16a build/obj/board.o
 .debug_abbrev  0x0000000000002f70      0x23a build/obj/syscalls.o
 .debug_abbrev  0x00000000000031aa      0x255 build/obj/i2c.o
 .debug_abbrev  0x00000000000033ff      0x4c3 build/obj/lsm9ds1.o
 .debug_abbrev  0x00000000000038c2      0x5cb build/obj/main.o
 .debug_abbrev  0x0000000000003e8d       0x89 /usr/lib/gcc/arm-none-eabi/4.9.3/../../../arm-none-eabi/lib/armv7-m/libm.a(lib_a-w_atan2.o)
 .debug_abbrev  0x0000000000003f16      0x13a /usr/lib/gcc/arm-none-eabi/4.9.3/../../../arm-none-eabi/lib/armv7-m/libm.a(lib_a-w_sqrt.o)
 .debug_abbrev  0x0000000000004050      0x142 /usr/lib/gcc/arm-none-eabi/4.9.3/../../../arm-none-eabi/lib/armv7-m/libm.a(lib_a-e_atan2.o)
 .debug_abbrev  0x0000000000004192      0x109 /usr/lib/gcc/arm-none-eabi/4.9.3/../../../arm-none-eabi/lib/armv7-m/libm.a(lib_a-e_sqrt.o)
 .debug_abbrev  0x000000000000429b      0x140 /usr/lib/gcc/arm-none-eabi/4.9.3/../../../arm-none-eabi/lib/armv7-m/libm.a(lib_a-s_atan.o)
 .debug_abbrev  0x00000000000043db       0xbb /usr/lib/gcc/arm-none-eabi/4.9.3/../../../arm-none-eabi/lib/armv7-m/libm.a(lib_a-s_fabs.o)
 .debug_abbrev  0x0000000000004496       0x6d /usr/lib/gcc/arm-none-eabi/4.9.3/../../../arm-none-eabi/lib/armv7-m/libm.a(lib_a-s_fpclassify.o)
 .debug_abbrev  0x0000000000004503       0x4f /usr/lib/gcc/arm-none-eabi/4.9.3/../../../arm-none-eabi/lib/armv7-m/libm.a(lib_a-s_lib_ver.o)
 .debug_abbrev  0x0000000000004552       0x9a /usr/lib/gcc/arm-none-eabi/4.9.3/../../../arm-none-eabi/lib/armv7-m/libm.a(lib_a-s_matherr.o)
 .debug_abbrev  0x00000000000045ec       0x14 /usr/lib/gcc/arm-none-eabi/4.9.3/armv7-m/libgcc.a(_arm_addsubdf3.o)
 .debug_abbrev  0x0000000000004600       0x14 /usr/lib/gcc/arm-none-eabi/4.9.3/armv7-m/libgcc.a(_arm_muldivdf3.o)
 .debug_abbrev  0x0000000000004614       0x14 /usr/lib/gcc/arm-none-eabi/4.9.3/armv7-m/libgcc.a(_arm_cmpdf2.o)
 .debug_abbrev  0x0000000000004628       0x14 /usr/lib/gcc/arm-none-eabi/4.9.3/armv7-m/libgcc.a(_arm_truncdfsf2.o)
 .debug_abbrev  0x000000000000463c       0x14 /usr/lib/gcc/arm-none-eabi/4.9.3/armv7-m/libgcc.a(_arm_addsubsf3.o)
 .debug_abbrev  0x0000000000004650       0x14 /usr/lib/gcc/arm-none-eabi/4.9.3/armv7-m/libgcc.a(_arm_muldivsf3.o)
 .debug_abbrev  0x0000000000004664       0x14 /usr/lib/gcc/arm-none-eabi/4.9.3/armv7-m/libgcc.a(_arm_cmpsf2.o)
 .debug_abbrev  0x0000000000004678       0x14 /usr/lib/gcc/arm-none-eabi/4.9.3/armv7-m/libgcc.a(_arm_fixsfsi.o)
 .debug_abbrev  0x000000000000468c       0x95 /usr/lib/gcc/arm-none-eabi/4.9.3/../../../arm-none-eabi/lib/armv7-m/libc.a(lib_a-abort.o)
 .debug_abbrev  0x0000000000004721      0x1f8 /usr/lib/gcc/arm-none-eabi/4.9.3/../../../arm-none-eabi/lib/armv7-m/libc.a(lib_a-assert.o)
 .debug_abbrev  0x0000000000004919      0x18f /usr/lib/gcc/arm-none-eabi/4.9.3/../../../arm-none-eabi/lib/armv7-m/libc.a(lib_a-errno.o)
 .debug_abbrev  0x0000000000004aa8      0x1fa /usr/lib/gcc/arm-none-eabi/4.9.3/../../../arm-none-eabi/lib/armv7-m/libc.a(lib_a-fiprintf.o)
 .debug_abbrev  0x0000000000004ca2      0x180 /usr/lib/gcc/arm-none-eabi/4.9.3/../../../arm-none-eabi/lib/armv7-m/libc.a(lib_a-impure.o)
 .debug_abbrev  0x0000000000004e22       0x14 /usr/lib/gcc/arm-none-eabi/4.9.3/../../../arm-none-eabi/lib/armv7-m/libc.a(lib_a-memcpy.o)
 .debug_abbrev  0x0000000000004e36       0x9f /usr/lib/gcc/arm-none-eabi/4.9.3/../../../arm-none-eabi/lib/armv7-m/libc.a(lib_a-memset.o)
 .debug_abbrev  0x0000000000004ed5      0x2d7 /usr/lib/gcc/arm-none-eabi/4.9.3/../../../arm-none-eabi/lib/armv7-m/libc.a(lib_a-signal.o)
 .debug_abbrev  0x00000000000051ac      0x20a /usr/lib/gcc/arm-none-eabi/4.9.3/../../../arm-none-eabi/lib/armv7-m/libc.a(lib_a-signalr.o)
 .debug_abbrev  0x00000000000053b6      0x3c9 /usr/lib/gcc/arm-none-eabi/4.9.3/../../../arm-none-eabi/lib/armv7-m/libc.a(lib_a-vfiprintf.o)
 .debug_abbrev  0x000000000000577f      0x20b /usr/lib/gcc/arm-none-eabi/4.9.3/../../../arm-none-eabi/lib/armv7-m/libc.a(lib_a-wsetup.o)
 .debug_abbrev  0x000000000000598a      0x2a1 /usr/lib/gcc/arm-none-eabi/4.9.3/../../../arm-none-eabi/lib/armv7-m/libc.a(lib_a-fflush.o)
 .debug_abbrev  0x0000000000005c2b      0x36d /usr/lib/gcc/arm-none-eabi/4.9.3/../../../arm-none-eabi/lib/armv7-m/libc.a(lib_a-findfp.o)
 .debug_abbrev  0x0000000000005f98      0x28e /usr/lib/gcc/arm-none-eabi/4.9.3/../../../arm-none-eabi/lib/armv7-m/libc.a(lib_a-fputwc.o)
 .debug_abbrev  0x0000000000006226      0x27b /usr/lib/gcc/arm-none-eabi/4.9.3/../../../arm-none-eabi/lib/armv7-m/libc.a(lib_a-freer.o)
 .debug_abbrev  0x00000000000064a1      0x24a /usr/lib/gcc/arm-none-eabi/4.9.3/../../../arm-none-eabi/lib/armv7-m/libc.a(lib_a-fvwrite.o)
 .debug_abbrev  0x00000000000066eb      0x1c2 /usr/lib/gcc/arm-none-eabi/4.9.3/../../../arm-none-eabi/lib/armv7-m/libc.a(lib_a-fwalk.o)
 .debug_abbrev  0x00000000000068ad      0x2ac /usr/lib/gcc/arm-none-eabi/4.9.3/../../../arm-none-eabi/lib/armv7-m/libc.a(lib_a-locale.o)
 .debug_abbrev  0x0000000000006b59      0x206 /usr/lib/gcc/arm-none-eabi/4.9.3/../../../arm-none-eabi/lib/armv7-m/libc.a(lib_a-makebuf.o)
 .debug_abbrev  0x0000000000006d5f      0x2ad /usr/lib/gcc/arm-none-eabi/4.9.3/../../../arm-none-eabi/lib/armv7-m/libc.a(lib_a-mallocr.o)
 .debug_abbrev  0x000000000000700c       0xba /usr/lib/gcc/arm-none-eabi/4.9.3/../../../arm-none-eabi/lib/armv7-m/libc.a(lib_a-memchr.o)
 .debug_abbrev  0x00000000000070c6       0xab /usr/lib/gcc/arm-none-eabi/4.9.3/../../../arm-none-eabi/lib/armv7-m/libc.a(lib_a-memmove.o)
 .debug_abbrev  0x0000000000007171      0x19a /usr/lib/gcc/arm-none-eabi/4.9.3/../../../arm-none-eabi/lib/armv7-m/libc.a(lib_a-mlock.o)
 .debug_abbrev  0x000000000000730b      0x260 /usr/lib/gcc/arm-none-eabi/4.9.3/../../../arm-none-eabi/lib/armv7-m/libc.a(lib_a-reallocr.o)
 .debug_abbrev  0x000000000000756b      0x25c /usr/lib/gcc/arm-none-eabi/4.9.3/../../../arm-none-eabi/lib/armv7-m/libc.a(lib_a-reent.o)
 .debug_abbrev  0x00000000000077c7      0x246 /usr/lib/gcc/arm-none-eabi/4.9.3/../../../arm-none-eabi/lib/armv7-m/libc.a(lib_a-stdio.o)
 .debug_abbrev  0x0000000000007a0d       0x70 /usr/lib/gcc/arm-none-eabi/4.9.3/../../../arm-none-eabi/lib/armv7-m/libc.a(lib_a-strlen.o)
 .debug_abbrev  0x0000000000007a7d      0x25b /usr/lib/gcc/arm-none-eabi/4.9.3/../../../arm-none-eabi/lib/armv7-m/libc.a(lib_a-wbuf.o)
 .debug_abbrev  0x0000000000007cd8      0x222 /usr/lib/gcc/arm-none-eabi/4.9.3/../../../arm-none-eabi/lib/armv7-m/libc.a(lib_a-wcrtomb.o)
 .debug_abbrev  0x0000000000007efa      0x212 /usr/lib/gcc/arm-none-eabi/4.9.3/../../../arm-none-eabi/lib/armv7-m/libc.a(lib_a-wctomb_r.o)
 .debug_abbrev  0x000000000000810c      0x2aa /usr/lib/gcc/arm-none-eabi/4.9.3/../../../arm-none-eabi/lib/armv7-m/libc.a(lib_a-fclose.o)
 .debug_abbrev  0x00000000000083b6       0x14 /usr/lib/gcc/arm-none-eabi/4.9.3/armv7-m/libgcc.a(_aeabi_uldivmod.o)
 .debug_abbrev  0x00000000000083ca       0xb7 /usr/lib/gcc/arm-none-eabi/4.9.3/armv7-m/libgcc.a(bpabi.o)
 .debug_abbrev  0x0000000000008481       0x14 /usr/lib/gcc/arm-none-eabi/4.9.3/armv7-m/libgcc.a(_dvmd_tls.o)
 .debug_abbrev  0x0000000000008495      0x169 /usr/lib/gcc/arm-none-eabi/4.9.3/armv7-m/libgcc.a(_divdi3.o)
 .debug_abbrev  0x00000000000085fe      0x154 /usr/lib/gcc/arm-none-eabi/4.9.3/armv7-m/libgcc.a(_udivdi3.o)

.debug_loc      0x0000000000000000    0x10a55
 .debug_loc     0x0000000000000000       0xba build/obj/crt0.o
 .debug_loc     0x00000000000000ba       0x5a build/obj/chcore_v7m.o
 .debug_loc     0x0000000000000114      0x158 build/obj/nvic.o
 .debug_loc     0x000000000000026c       0x31 build/obj/chsys.o
 .debug_loc     0x000000000000029d       0xd9 build/obj/chvt.o
 .debug_loc     0x0000000000000376      0x2a4 build/obj/chschd.o
 .debug_loc     0x000000000000061a      0x423 build/obj/chthreads.o
 .debug_loc     0x0000000000000a3d      0x41a build/obj/chmtx.o
 .debug_loc     0x0000000000000e57      0x591 build/obj/chevents.o
 .debug_loc     0x00000000000013e8      0x4f5 build/obj/chqueues.o
 .debug_loc     0x00000000000018dd       0xb0 build/obj/chmemcore.o
 .debug_loc     0x000000000000198d      0x3a1 build/obj/chheap.o
 .debug_loc     0x0000000000001d2e      0x4e0 build/obj/serial.o
 .debug_loc     0x000000000000220e       0x42 build/obj/pal_lld.o
 .debug_loc     0x0000000000002250      0x299 build/obj/serial_lld.o
 .debug_loc     0x00000000000024e9      0x39a build/obj/pio.o
 .debug_loc     0x0000000000002883      0x269 build/obj/pmc.o
 .debug_loc     0x0000000000002aec      0x83c build/obj/atmel_twi.o
 .debug_loc     0x0000000000003328      0x8f6 build/obj/atmel_twid.o
 .debug_loc     0x0000000000003c1e       0x50 build/obj/atmel_psram.o
 .debug_loc     0x0000000000003c6e      0x1a4 build/obj/syscalls.o
 .debug_loc     0x0000000000003e12      0x254 build/obj/i2c.o
 .debug_loc     0x0000000000004066     0x295e build/obj/lsm9ds1.o
 .debug_loc     0x00000000000069c4      0xec1 build/obj/main.o
 .debug_loc     0x0000000000007885       0x50 /usr/lib/gcc/arm-none-eabi/4.9.3/../../../arm-none-eabi/lib/armv7-m/libm.a(lib_a-w_atan2.o)
 .debug_loc     0x00000000000078d5       0x40 /usr/lib/gcc/arm-none-eabi/4.9.3/../../../arm-none-eabi/lib/armv7-m/libm.a(lib_a-w_sqrt.o)
 .debug_loc     0x0000000000007915      0x65c /usr/lib/gcc/arm-none-eabi/4.9.3/../../../arm-none-eabi/lib/armv7-m/libm.a(lib_a-e_atan2.o)
 .debug_loc     0x0000000000007f71      0x4ce /usr/lib/gcc/arm-none-eabi/4.9.3/../../../arm-none-eabi/lib/armv7-m/libm.a(lib_a-e_sqrt.o)
 .debug_loc     0x000000000000843f      0x384 /usr/lib/gcc/arm-none-eabi/4.9.3/../../../arm-none-eabi/lib/armv7-m/libm.a(lib_a-s_atan.o)
 .debug_loc     0x00000000000087c3       0x2b /usr/lib/gcc/arm-none-eabi/4.9.3/../../../arm-none-eabi/lib/armv7-m/libm.a(lib_a-s_fabs.o)
 .debug_loc     0x00000000000087ee       0xa8 /usr/lib/gcc/arm-none-eabi/4.9.3/../../../arm-none-eabi/lib/armv7-m/libm.a(lib_a-s_fpclassify.o)
 .debug_loc     0x0000000000008896       0x21 /usr/lib/gcc/arm-none-eabi/4.9.3/../../../arm-none-eabi/lib/armv7-m/libm.a(lib_a-s_matherr.o)
 .debug_loc     0x00000000000088b7      0x135 /usr/lib/gcc/arm-none-eabi/4.9.3/../../../arm-none-eabi/lib/armv7-m/libc.a(lib_a-assert.o)
 .debug_loc     0x00000000000089ec       0x6e /usr/lib/gcc/arm-none-eabi/4.9.3/../../../arm-none-eabi/lib/armv7-m/libc.a(lib_a-fiprintf.o)
 .debug_loc     0x0000000000008a5a      0x1ae /usr/lib/gcc/arm-none-eabi/4.9.3/../../../arm-none-eabi/lib/armv7-m/libc.a(lib_a-memset.o)
 .debug_loc     0x0000000000008c08      0x433 /usr/lib/gcc/arm-none-eabi/4.9.3/../../../arm-none-eabi/lib/armv7-m/libc.a(lib_a-signal.o)
 .debug_loc     0x000000000000903b       0x9a /usr/lib/gcc/arm-none-eabi/4.9.3/../../../arm-none-eabi/lib/armv7-m/libc.a(lib_a-signalr.o)
 .debug_loc     0x00000000000090d5     0x197b /usr/lib/gcc/arm-none-eabi/4.9.3/../../../arm-none-eabi/lib/armv7-m/libc.a(lib_a-vfiprintf.o)
 .debug_loc     0x000000000000aa50       0x8c /usr/lib/gcc/arm-none-eabi/4.9.3/../../../arm-none-eabi/lib/armv7-m/libc.a(lib_a-wsetup.o)
 .debug_loc     0x000000000000aadc      0x236 /usr/lib/gcc/arm-none-eabi/4.9.3/../../../arm-none-eabi/lib/armv7-m/libc.a(lib_a-fflush.o)
 .debug_loc     0x000000000000ad12      0x22e /usr/lib/gcc/arm-none-eabi/4.9.3/../../../arm-none-eabi/lib/armv7-m/libc.a(lib_a-findfp.o)
 .debug_loc     0x000000000000af40      0x1ff /usr/lib/gcc/arm-none-eabi/4.9.3/../../../arm-none-eabi/lib/armv7-m/libc.a(lib_a-fputwc.o)
 .debug_loc     0x000000000000b13f      0x50d /usr/lib/gcc/arm-none-eabi/4.9.3/../../../arm-none-eabi/lib/armv7-m/libc.a(lib_a-freer.o)
 .debug_loc     0x000000000000b64c      0x63c /usr/lib/gcc/arm-none-eabi/4.9.3/../../../arm-none-eabi/lib/armv7-m/libc.a(lib_a-fvwrite.o)
 .debug_loc     0x000000000000bc88      0x1f1 /usr/lib/gcc/arm-none-eabi/4.9.3/../../../arm-none-eabi/lib/armv7-m/libc.a(lib_a-fwalk.o)
 .debug_loc     0x000000000000be79      0x131 /usr/lib/gcc/arm-none-eabi/4.9.3/../../../arm-none-eabi/lib/armv7-m/libc.a(lib_a-locale.o)
 .debug_loc     0x000000000000bfaa      0x10c /usr/lib/gcc/arm-none-eabi/4.9.3/../../../arm-none-eabi/lib/armv7-m/libc.a(lib_a-makebuf.o)
 .debug_loc     0x000000000000c0b6      0xd6d /usr/lib/gcc/arm-none-eabi/4.9.3/../../../arm-none-eabi/lib/armv7-m/libc.a(lib_a-mallocr.o)
 .debug_loc     0x000000000000ce23      0x180 /usr/lib/gcc/arm-none-eabi/4.9.3/../../../arm-none-eabi/lib/armv7-m/libc.a(lib_a-memchr.o)
 .debug_loc     0x000000000000cfa3      0x2ef /usr/lib/gcc/arm-none-eabi/4.9.3/../../../arm-none-eabi/lib/armv7-m/libc.a(lib_a-memmove.o)
 .debug_loc     0x000000000000d292     0x12a3 /usr/lib/gcc/arm-none-eabi/4.9.3/../../../arm-none-eabi/lib/armv7-m/libc.a(lib_a-reallocr.o)
 .debug_loc     0x000000000000e535      0x11d /usr/lib/gcc/arm-none-eabi/4.9.3/../../../arm-none-eabi/lib/armv7-m/libc.a(lib_a-reent.o)
 .debug_loc     0x000000000000e652      0x29e /usr/lib/gcc/arm-none-eabi/4.9.3/../../../arm-none-eabi/lib/armv7-m/libc.a(lib_a-stdio.o)
 .debug_loc     0x000000000000e8f0       0x21 /usr/lib/gcc/arm-none-eabi/4.9.3/../../../arm-none-eabi/lib/armv7-m/libc.a(lib_a-strlen.o)
 .debug_loc     0x000000000000e911      0x11d /usr/lib/gcc/arm-none-eabi/4.9.3/../../../arm-none-eabi/lib/armv7-m/libc.a(lib_a-wbuf.o)
 .debug_loc     0x000000000000ea2e      0x1fa /usr/lib/gcc/arm-none-eabi/4.9.3/../../../arm-none-eabi/lib/armv7-m/libc.a(lib_a-wcrtomb.o)
 .debug_loc     0x000000000000ec28      0x124 /usr/lib/gcc/arm-none-eabi/4.9.3/../../../arm-none-eabi/lib/armv7-m/libc.a(lib_a-wctomb_r.o)
 .debug_loc     0x000000000000ed4c      0x151 /usr/lib/gcc/arm-none-eabi/4.9.3/../../../arm-none-eabi/lib/armv7-m/libc.a(lib_a-fclose.o)
 .debug_loc     0x000000000000ee9d       0xa0 /usr/lib/gcc/arm-none-eabi/4.9.3/armv7-m/libgcc.a(bpabi.o)
 .debug_loc     0x000000000000ef3d      0xdbd /usr/lib/gcc/arm-none-eabi/4.9.3/armv7-m/libgcc.a(_divdi3.o)
 .debug_loc     0x000000000000fcfa      0xd5b /usr/lib/gcc/arm-none-eabi/4.9.3/armv7-m/libgcc.a(_udivdi3.o)

.debug_aranges  0x0000000000000000     0x1240
 .debug_aranges
                0x0000000000000000       0x38 build/obj/crt0.o
 .debug_aranges
                0x0000000000000038       0x20 build/obj/vectors.o
 .debug_aranges
                0x0000000000000058       0x50 build/obj/chcore_v7m.o
 .debug_aranges
                0x00000000000000a8       0x30 build/obj/nvic.o
 .debug_aranges
                0x00000000000000d8       0x30 build/obj/chsys.o
 .debug_aranges
                0x0000000000000108       0x38 build/obj/chvt.o
 .debug_aranges
                0x0000000000000140       0x58 build/obj/chschd.o
 .debug_aranges
                0x0000000000000198       0x78 build/obj/chthreads.o
 .debug_aranges
                0x0000000000000210       0x58 build/obj/chmtx.o
 .debug_aranges
                0x0000000000000268       0x90 build/obj/chevents.o
 .debug_aranges
                0x00000000000002f8       0x70 build/obj/chqueues.o
 .debug_aranges
                0x0000000000000368       0x38 build/obj/chmemcore.o
 .debug_aranges
                0x00000000000003a0       0x40 build/obj/chheap.o
 .debug_aranges
                0x00000000000003e0       0x20 build/obj/hal.o
 .debug_aranges
                0x0000000000000400       0x90 build/obj/serial.o
 .debug_aranges
                0x0000000000000490       0x28 build/obj/hal_lld.o
 .debug_aranges
                0x00000000000004b8       0x28 build/obj/system_SAM3.o
 .debug_aranges
                0x00000000000004e0       0x28 build/obj/pal_lld.o
 .debug_aranges
                0x0000000000000508       0x58 build/obj/serial_lld.o
 .debug_aranges
                0x0000000000000560       0x48 build/obj/pio.o
 .debug_aranges
                0x00000000000005a8       0x60 build/obj/pmc.o
 .debug_aranges
                0x0000000000000608       0x98 build/obj/atmel_twi.o
 .debug_aranges
                0x00000000000006a0       0x38 build/obj/atmel_twid.o
 .debug_aranges
                0x00000000000006d8       0x20 build/obj/atmel_psram.o
 .debug_aranges
                0x00000000000006f8       0x28 build/obj/board.o
 .debug_aranges
                0x0000000000000720       0x68 build/obj/syscalls.o
 .debug_aranges
                0x0000000000000788       0x48 build/obj/i2c.o
 .debug_aranges
                0x00000000000007d0      0x1e0 build/obj/lsm9ds1.o
 .debug_aranges
                0x00000000000009b0       0x70 build/obj/main.o
 .debug_aranges
                0x0000000000000a20       0x20 /usr/lib/gcc/arm-none-eabi/4.9.3/../../../arm-none-eabi/lib/armv7-m/libm.a(lib_a-w_atan2.o)
 .debug_aranges
                0x0000000000000a40       0x20 /usr/lib/gcc/arm-none-eabi/4.9.3/../../../arm-none-eabi/lib/armv7-m/libm.a(lib_a-w_sqrt.o)
 .debug_aranges
                0x0000000000000a60       0x20 /usr/lib/gcc/arm-none-eabi/4.9.3/../../../arm-none-eabi/lib/armv7-m/libm.a(lib_a-e_atan2.o)
 .debug_aranges
                0x0000000000000a80       0x20 /usr/lib/gcc/arm-none-eabi/4.9.3/../../../arm-none-eabi/lib/armv7-m/libm.a(lib_a-e_sqrt.o)
 .debug_aranges
                0x0000000000000aa0       0x20 /usr/lib/gcc/arm-none-eabi/4.9.3/../../../arm-none-eabi/lib/armv7-m/libm.a(lib_a-s_atan.o)
 .debug_aranges
                0x0000000000000ac0       0x20 /usr/lib/gcc/arm-none-eabi/4.9.3/../../../arm-none-eabi/lib/armv7-m/libm.a(lib_a-s_fabs.o)
 .debug_aranges
                0x0000000000000ae0       0x20 /usr/lib/gcc/arm-none-eabi/4.9.3/../../../arm-none-eabi/lib/armv7-m/libm.a(lib_a-s_fpclassify.o)
 .debug_aranges
                0x0000000000000b00       0x18 /usr/lib/gcc/arm-none-eabi/4.9.3/../../../arm-none-eabi/lib/armv7-m/libm.a(lib_a-s_lib_ver.o)
 .debug_aranges
                0x0000000000000b18       0x20 /usr/lib/gcc/arm-none-eabi/4.9.3/../../../arm-none-eabi/lib/armv7-m/libm.a(lib_a-s_matherr.o)
 .debug_aranges
                0x0000000000000b38       0x20 /usr/lib/gcc/arm-none-eabi/4.9.3/armv7-m/libgcc.a(_arm_addsubdf3.o)
 .debug_aranges
                0x0000000000000b58       0x20 /usr/lib/gcc/arm-none-eabi/4.9.3/armv7-m/libgcc.a(_arm_muldivdf3.o)
 .debug_aranges
                0x0000000000000b78       0x20 /usr/lib/gcc/arm-none-eabi/4.9.3/armv7-m/libgcc.a(_arm_cmpdf2.o)
 .debug_aranges
                0x0000000000000b98       0x20 /usr/lib/gcc/arm-none-eabi/4.9.3/armv7-m/libgcc.a(_arm_truncdfsf2.o)
 .debug_aranges
                0x0000000000000bb8       0x20 /usr/lib/gcc/arm-none-eabi/4.9.3/armv7-m/libgcc.a(_arm_addsubsf3.o)
 .debug_aranges
                0x0000000000000bd8       0x20 /usr/lib/gcc/arm-none-eabi/4.9.3/armv7-m/libgcc.a(_arm_muldivsf3.o)
 .debug_aranges
                0x0000000000000bf8       0x20 /usr/lib/gcc/arm-none-eabi/4.9.3/armv7-m/libgcc.a(_arm_cmpsf2.o)
 .debug_aranges
                0x0000000000000c18       0x20 /usr/lib/gcc/arm-none-eabi/4.9.3/armv7-m/libgcc.a(_arm_fixsfsi.o)
 .debug_aranges
                0x0000000000000c38       0x20 /usr/lib/gcc/arm-none-eabi/4.9.3/../../../arm-none-eabi/lib/armv7-m/libc.a(lib_a-abort.o)
 .debug_aranges
                0x0000000000000c58       0x28 /usr/lib/gcc/arm-none-eabi/4.9.3/../../../arm-none-eabi/lib/armv7-m/libc.a(lib_a-assert.o)
 .debug_aranges
                0x0000000000000c80       0x20 /usr/lib/gcc/arm-none-eabi/4.9.3/../../../arm-none-eabi/lib/armv7-m/libc.a(lib_a-errno.o)
 .debug_aranges
                0x0000000000000ca0       0x28 /usr/lib/gcc/arm-none-eabi/4.9.3/../../../arm-none-eabi/lib/armv7-m/libc.a(lib_a-fiprintf.o)
 .debug_aranges
                0x0000000000000cc8       0x18 /usr/lib/gcc/arm-none-eabi/4.9.3/../../../arm-none-eabi/lib/armv7-m/libc.a(lib_a-impure.o)
 .debug_aranges
                0x0000000000000ce0       0x20 /usr/lib/gcc/arm-none-eabi/4.9.3/../../../arm-none-eabi/lib/armv7-m/libc.a(lib_a-memcpy.o)
 .debug_aranges
                0x0000000000000d00       0x20 /usr/lib/gcc/arm-none-eabi/4.9.3/../../../arm-none-eabi/lib/armv7-m/libc.a(lib_a-memset.o)
 .debug_aranges
                0x0000000000000d20       0x58 /usr/lib/gcc/arm-none-eabi/4.9.3/../../../arm-none-eabi/lib/armv7-m/libc.a(lib_a-signal.o)
 .debug_aranges
                0x0000000000000d78       0x28 /usr/lib/gcc/arm-none-eabi/4.9.3/../../../arm-none-eabi/lib/armv7-m/libc.a(lib_a-signalr.o)
 .debug_aranges
                0x0000000000000da0       0x40 /usr/lib/gcc/arm-none-eabi/4.9.3/../../../arm-none-eabi/lib/armv7-m/libc.a(lib_a-vfiprintf.o)
 .debug_aranges
                0x0000000000000de0       0x20 /usr/lib/gcc/arm-none-eabi/4.9.3/../../../arm-none-eabi/lib/armv7-m/libc.a(lib_a-wsetup.o)
 .debug_aranges
                0x0000000000000e00       0x30 /usr/lib/gcc/arm-none-eabi/4.9.3/../../../arm-none-eabi/lib/armv7-m/libc.a(lib_a-fflush.o)
 .debug_aranges
                0x0000000000000e30       0x88 /usr/lib/gcc/arm-none-eabi/4.9.3/../../../arm-none-eabi/lib/armv7-m/libc.a(lib_a-findfp.o)
 .debug_aranges
                0x0000000000000eb8       0x30 /usr/lib/gcc/arm-none-eabi/4.9.3/../../../arm-none-eabi/lib/armv7-m/libc.a(lib_a-fputwc.o)
 .debug_aranges
                0x0000000000000ee8       0x28 /usr/lib/gcc/arm-none-eabi/4.9.3/../../../arm-none-eabi/lib/armv7-m/libc.a(lib_a-freer.o)
 .debug_aranges
                0x0000000000000f10       0x20 /usr/lib/gcc/arm-none-eabi/4.9.3/../../../arm-none-eabi/lib/armv7-m/libc.a(lib_a-fvwrite.o)
 .debug_aranges
                0x0000000000000f30       0x28 /usr/lib/gcc/arm-none-eabi/4.9.3/../../../arm-none-eabi/lib/armv7-m/libc.a(lib_a-fwalk.o)
 .debug_aranges
                0x0000000000000f58       0x58 /usr/lib/gcc/arm-none-eabi/4.9.3/../../../arm-none-eabi/lib/armv7-m/libc.a(lib_a-locale.o)
 .debug_aranges
                0x0000000000000fb0       0x20 /usr/lib/gcc/arm-none-eabi/4.9.3/../../../arm-none-eabi/lib/armv7-m/libc.a(lib_a-makebuf.o)
 .debug_aranges
                0x0000000000000fd0       0x20 /usr/lib/gcc/arm-none-eabi/4.9.3/../../../arm-none-eabi/lib/armv7-m/libc.a(lib_a-mallocr.o)
 .debug_aranges
                0x0000000000000ff0       0x20 /usr/lib/gcc/arm-none-eabi/4.9.3/../../../arm-none-eabi/lib/armv7-m/libc.a(lib_a-memchr.o)
 .debug_aranges
                0x0000000000001010       0x20 /usr/lib/gcc/arm-none-eabi/4.9.3/../../../arm-none-eabi/lib/armv7-m/libc.a(lib_a-memmove.o)
 .debug_aranges
                0x0000000000001030       0x28 /usr/lib/gcc/arm-none-eabi/4.9.3/../../../arm-none-eabi/lib/armv7-m/libc.a(lib_a-mlock.o)
 .debug_aranges
                0x0000000000001058       0x20 /usr/lib/gcc/arm-none-eabi/4.9.3/../../../arm-none-eabi/lib/armv7-m/libc.a(lib_a-reallocr.o)
 .debug_aranges
                0x0000000000001078       0x28 /usr/lib/gcc/arm-none-eabi/4.9.3/../../../arm-none-eabi/lib/armv7-m/libc.a(lib_a-reent.o)
 .debug_aranges
                0x00000000000010a0       0x40 /usr/lib/gcc/arm-none-eabi/4.9.3/../../../arm-none-eabi/lib/armv7-m/libc.a(lib_a-stdio.o)
 .debug_aranges
                0x00000000000010e0       0x20 /usr/lib/gcc/arm-none-eabi/4.9.3/../../../arm-none-eabi/lib/armv7-m/libc.a(lib_a-strlen.o)
 .debug_aranges
                0x0000000000001100       0x28 /usr/lib/gcc/arm-none-eabi/4.9.3/../../../arm-none-eabi/lib/armv7-m/libc.a(lib_a-wbuf.o)
 .debug_aranges
                0x0000000000001128       0x28 /usr/lib/gcc/arm-none-eabi/4.9.3/../../../arm-none-eabi/lib/armv7-m/libc.a(lib_a-wcrtomb.o)
 .debug_aranges
                0x0000000000001150       0x28 /usr/lib/gcc/arm-none-eabi/4.9.3/../../../arm-none-eabi/lib/armv7-m/libc.a(lib_a-wctomb_r.o)
 .debug_aranges
                0x0000000000001178       0x28 /usr/lib/gcc/arm-none-eabi/4.9.3/../../../arm-none-eabi/lib/armv7-m/libc.a(lib_a-fclose.o)
 .debug_aranges
                0x00000000000011a0       0x20 /usr/lib/gcc/arm-none-eabi/4.9.3/armv7-m/libgcc.a(_aeabi_uldivmod.o)
 .debug_aranges
                0x00000000000011c0       0x20 /usr/lib/gcc/arm-none-eabi/4.9.3/armv7-m/libgcc.a(bpabi.o)
 .debug_aranges
                0x00000000000011e0       0x20 /usr/lib/gcc/arm-none-eabi/4.9.3/armv7-m/libgcc.a(_dvmd_tls.o)
 .debug_aranges
                0x0000000000001200       0x20 /usr/lib/gcc/arm-none-eabi/4.9.3/armv7-m/libgcc.a(_divdi3.o)
 .debug_aranges
                0x0000000000001220       0x20 /usr/lib/gcc/arm-none-eabi/4.9.3/armv7-m/libgcc.a(_udivdi3.o)

.debug_ranges   0x0000000000000000     0x1ea0
 .debug_ranges  0x0000000000000000       0x58 build/obj/crt0.o
 .debug_ranges  0x0000000000000058       0x10 build/obj/vectors.o
 .debug_ranges  0x0000000000000068       0x58 build/obj/chcore_v7m.o
 .debug_ranges  0x00000000000000c0       0x20 build/obj/nvic.o
 .debug_ranges  0x00000000000000e0       0x38 build/obj/chsys.o
 .debug_ranges  0x0000000000000118       0x28 build/obj/chvt.o
 .debug_ranges  0x0000000000000140      0x110 build/obj/chschd.o
 .debug_ranges  0x0000000000000250      0x130 build/obj/chthreads.o
 .debug_ranges  0x0000000000000380      0x1a0 build/obj/chmtx.o
 .debug_ranges  0x0000000000000520       0xe0 build/obj/chevents.o
 .debug_ranges  0x0000000000000600       0xc0 build/obj/chqueues.o
 .debug_ranges  0x00000000000006c0       0x28 build/obj/chmemcore.o
 .debug_ranges  0x00000000000006e8       0x30 build/obj/chheap.o
 .debug_ranges  0x0000000000000718       0x10 build/obj/hal.o
 .debug_ranges  0x0000000000000728       0xc8 build/obj/serial.o
 .debug_ranges  0x00000000000007f0       0x18 build/obj/hal_lld.o
 .debug_ranges  0x0000000000000808       0x18 build/obj/system_SAM3.o
 .debug_ranges  0x0000000000000820       0x18 build/obj/pal_lld.o
 .debug_ranges  0x0000000000000838       0x78 build/obj/serial_lld.o
 .debug_ranges  0x00000000000008b0       0xb0 build/obj/pio.o
 .debug_ranges  0x0000000000000960       0x50 build/obj/pmc.o
 .debug_ranges  0x00000000000009b0       0x88 build/obj/atmel_twi.o
 .debug_ranges  0x0000000000000a38       0x28 build/obj/atmel_twid.o
 .debug_ranges  0x0000000000000a60       0x10 build/obj/atmel_psram.o
 .debug_ranges  0x0000000000000a70       0x18 build/obj/board.o
 .debug_ranges  0x0000000000000a88       0x58 build/obj/syscalls.o
 .debug_ranges  0x0000000000000ae0       0xb0 build/obj/i2c.o
 .debug_ranges  0x0000000000000b90      0x770 build/obj/lsm9ds1.o
 .debug_ranges  0x0000000000001300       0xb0 build/obj/main.o
 .debug_ranges  0x00000000000013b0       0x10 /usr/lib/gcc/arm-none-eabi/4.9.3/../../../arm-none-eabi/lib/armv7-m/libm.a(lib_a-w_atan2.o)
 .debug_ranges  0x00000000000013c0       0x10 /usr/lib/gcc/arm-none-eabi/4.9.3/../../../arm-none-eabi/lib/armv7-m/libm.a(lib_a-w_sqrt.o)
 .debug_ranges  0x00000000000013d0       0x10 /usr/lib/gcc/arm-none-eabi/4.9.3/../../../arm-none-eabi/lib/armv7-m/libm.a(lib_a-e_atan2.o)
 .debug_ranges  0x00000000000013e0       0x10 /usr/lib/gcc/arm-none-eabi/4.9.3/../../../arm-none-eabi/lib/armv7-m/libm.a(lib_a-e_sqrt.o)
 .debug_ranges  0x00000000000013f0       0x28 /usr/lib/gcc/arm-none-eabi/4.9.3/../../../arm-none-eabi/lib/armv7-m/libm.a(lib_a-s_atan.o)
 .debug_ranges  0x0000000000001418       0x10 /usr/lib/gcc/arm-none-eabi/4.9.3/../../../arm-none-eabi/lib/armv7-m/libm.a(lib_a-s_fabs.o)
 .debug_ranges  0x0000000000001428       0x10 /usr/lib/gcc/arm-none-eabi/4.9.3/../../../arm-none-eabi/lib/armv7-m/libm.a(lib_a-s_fpclassify.o)
 .debug_ranges  0x0000000000001438       0x10 /usr/lib/gcc/arm-none-eabi/4.9.3/../../../arm-none-eabi/lib/armv7-m/libm.a(lib_a-s_matherr.o)
 .debug_ranges  0x0000000000001448       0x10 /usr/lib/gcc/arm-none-eabi/4.9.3/../../../arm-none-eabi/lib/armv7-m/libc.a(lib_a-abort.o)
 .debug_ranges  0x0000000000001458       0x18 /usr/lib/gcc/arm-none-eabi/4.9.3/../../../arm-none-eabi/lib/armv7-m/libc.a(lib_a-assert.o)
 .debug_ranges  0x0000000000001470       0x10 /usr/lib/gcc/arm-none-eabi/4.9.3/../../../arm-none-eabi/lib/armv7-m/libc.a(lib_a-errno.o)
 .debug_ranges  0x0000000000001480       0x18 /usr/lib/gcc/arm-none-eabi/4.9.3/../../../arm-none-eabi/lib/armv7-m/libc.a(lib_a-fiprintf.o)
 .debug_ranges  0x0000000000001498       0x10 /usr/lib/gcc/arm-none-eabi/4.9.3/../../../arm-none-eabi/lib/armv7-m/libc.a(lib_a-memset.o)
 .debug_ranges  0x00000000000014a8       0x60 /usr/lib/gcc/arm-none-eabi/4.9.3/../../../arm-none-eabi/lib/armv7-m/libc.a(lib_a-signal.o)
 .debug_ranges  0x0000000000001508       0x18 /usr/lib/gcc/arm-none-eabi/4.9.3/../../../arm-none-eabi/lib/armv7-m/libc.a(lib_a-signalr.o)
 .debug_ranges  0x0000000000001520      0x1f8 /usr/lib/gcc/arm-none-eabi/4.9.3/../../../arm-none-eabi/lib/armv7-m/libc.a(lib_a-vfiprintf.o)
 .debug_ranges  0x0000000000001718       0x38 /usr/lib/gcc/arm-none-eabi/4.9.3/../../../arm-none-eabi/lib/armv7-m/libc.a(lib_a-wsetup.o)
 .debug_ranges  0x0000000000001750       0x80 /usr/lib/gcc/arm-none-eabi/4.9.3/../../../arm-none-eabi/lib/armv7-m/libc.a(lib_a-fflush.o)
 .debug_ranges  0x00000000000017d0       0xe0 /usr/lib/gcc/arm-none-eabi/4.9.3/../../../arm-none-eabi/lib/armv7-m/libc.a(lib_a-findfp.o)
 .debug_ranges  0x00000000000018b0       0x20 /usr/lib/gcc/arm-none-eabi/4.9.3/../../../arm-none-eabi/lib/armv7-m/libc.a(lib_a-fputwc.o)
 .debug_ranges  0x00000000000018d0       0x18 /usr/lib/gcc/arm-none-eabi/4.9.3/../../../arm-none-eabi/lib/armv7-m/libc.a(lib_a-freer.o)
 .debug_ranges  0x00000000000018e8       0x38 /usr/lib/gcc/arm-none-eabi/4.9.3/../../../arm-none-eabi/lib/armv7-m/libc.a(lib_a-fvwrite.o)
 .debug_ranges  0x0000000000001920       0x18 /usr/lib/gcc/arm-none-eabi/4.9.3/../../../arm-none-eabi/lib/armv7-m/libc.a(lib_a-fwalk.o)
 .debug_ranges  0x0000000000001938       0x48 /usr/lib/gcc/arm-none-eabi/4.9.3/../../../arm-none-eabi/lib/armv7-m/libc.a(lib_a-locale.o)
 .debug_ranges  0x0000000000001980       0x10 /usr/lib/gcc/arm-none-eabi/4.9.3/../../../arm-none-eabi/lib/armv7-m/libc.a(lib_a-makebuf.o)
 .debug_ranges  0x0000000000001990       0x50 /usr/lib/gcc/arm-none-eabi/4.9.3/../../../arm-none-eabi/lib/armv7-m/libc.a(lib_a-mallocr.o)
 .debug_ranges  0x00000000000019e0       0x10 /usr/lib/gcc/arm-none-eabi/4.9.3/../../../arm-none-eabi/lib/armv7-m/libc.a(lib_a-memchr.o)
 .debug_ranges  0x00000000000019f0       0x10 /usr/lib/gcc/arm-none-eabi/4.9.3/../../../arm-none-eabi/lib/armv7-m/libc.a(lib_a-memmove.o)
 .debug_ranges  0x0000000000001a00       0x18 /usr/lib/gcc/arm-none-eabi/4.9.3/../../../arm-none-eabi/lib/armv7-m/libc.a(lib_a-mlock.o)
 .debug_ranges  0x0000000000001a18      0x1a8 /usr/lib/gcc/arm-none-eabi/4.9.3/../../../arm-none-eabi/lib/armv7-m/libc.a(lib_a-reallocr.o)
 .debug_ranges  0x0000000000001bc0       0x18 /usr/lib/gcc/arm-none-eabi/4.9.3/../../../arm-none-eabi/lib/armv7-m/libc.a(lib_a-reent.o)
 .debug_ranges  0x0000000000001bd8       0x30 /usr/lib/gcc/arm-none-eabi/4.9.3/../../../arm-none-eabi/lib/armv7-m/libc.a(lib_a-stdio.o)
 .debug_ranges  0x0000000000001c08       0x10 /usr/lib/gcc/arm-none-eabi/4.9.3/../../../arm-none-eabi/lib/armv7-m/libc.a(lib_a-strlen.o)
 .debug_ranges  0x0000000000001c18       0x30 /usr/lib/gcc/arm-none-eabi/4.9.3/../../../arm-none-eabi/lib/armv7-m/libc.a(lib_a-wbuf.o)
 .debug_ranges  0x0000000000001c48       0x18 /usr/lib/gcc/arm-none-eabi/4.9.3/../../../arm-none-eabi/lib/armv7-m/libc.a(lib_a-wcrtomb.o)
 .debug_ranges  0x0000000000001c60       0x18 /usr/lib/gcc/arm-none-eabi/4.9.3/../../../arm-none-eabi/lib/armv7-m/libc.a(lib_a-wctomb_r.o)
 .debug_ranges  0x0000000000001c78       0x48 /usr/lib/gcc/arm-none-eabi/4.9.3/../../../arm-none-eabi/lib/armv7-m/libc.a(lib_a-fclose.o)
 .debug_ranges  0x0000000000001cc0       0xf0 /usr/lib/gcc/arm-none-eabi/4.9.3/armv7-m/libgcc.a(_divdi3.o)
 .debug_ranges  0x0000000000001db0       0xf0 /usr/lib/gcc/arm-none-eabi/4.9.3/armv7-m/libgcc.a(_udivdi3.o)

.debug_line     0x0000000000000000     0x9b0e
 .debug_line    0x0000000000000000      0x11b build/obj/crt0.o
 .debug_line    0x000000000000011b       0x77 build/obj/vectors.o
 .debug_line    0x0000000000000192      0x20a build/obj/chcore_v7m.o
 .debug_line    0x000000000000039c       0xfc build/obj/nvic.o
 .debug_line    0x0000000000000498      0x1fb build/obj/chsys.o
 .debug_line    0x0000000000000693      0x180 build/obj/chvt.o
 .debug_line    0x0000000000000813      0x2ea build/obj/chschd.o
 .debug_line    0x0000000000000afd      0x39a build/obj/chthreads.o
 .debug_line    0x0000000000000e97      0x34e build/obj/chmtx.o
 .debug_line    0x00000000000011e5      0x2f1 build/obj/chevents.o
 .debug_line    0x00000000000014d6      0x356 build/obj/chqueues.o
 .debug_line    0x000000000000182c      0x139 build/obj/chmemcore.o
 .debug_line    0x0000000000001965      0x275 build/obj/chheap.o
 .debug_line    0x0000000000001bda      0x17f build/obj/hal.o
 .debug_line    0x0000000000001d59      0x3b1 build/obj/serial.o
 .debug_line    0x000000000000210a      0x131 build/obj/hal_lld.o
 .debug_line    0x000000000000223b      0x1a4 build/obj/system_SAM3.o
 .debug_line    0x00000000000023df      0x1ad build/obj/pal_lld.o
 .debug_line    0x000000000000258c      0x3f0 build/obj/serial_lld.o
 .debug_line    0x000000000000297c      0x1fd build/obj/pio.o
 .debug_line    0x0000000000002b79      0x291 build/obj/pmc.o
 .debug_line    0x0000000000002e0a      0x2c7 build/obj/atmel_twi.o
 .debug_line    0x00000000000030d1      0x25d build/obj/atmel_twid.o
 .debug_line    0x000000000000332e      0x131 build/obj/atmel_psram.o
 .debug_line    0x000000000000345f      0x198 build/obj/board.o
 .debug_line    0x00000000000035f7      0x1c4 build/obj/syscalls.o
 .debug_line    0x00000000000037bb      0x1c8 build/obj/i2c.o
 .debug_line    0x0000000000003983      0xa52 build/obj/lsm9ds1.o
 .debug_line    0x00000000000043d5      0x563 build/obj/main.o
 .debug_line    0x0000000000004938       0xeb /usr/lib/gcc/arm-none-eabi/4.9.3/../../../arm-none-eabi/lib/armv7-m/libm.a(lib_a-w_atan2.o)
 .debug_line    0x0000000000004a23      0x16c /usr/lib/gcc/arm-none-eabi/4.9.3/../../../arm-none-eabi/lib/armv7-m/libm.a(lib_a-w_sqrt.o)
 .debug_line    0x0000000000004b8f      0x1d7 /usr/lib/gcc/arm-none-eabi/4.9.3/../../../arm-none-eabi/lib/armv7-m/libm.a(lib_a-e_atan2.o)
 .debug_line    0x0000000000004d66      0x1a5 /usr/lib/gcc/arm-none-eabi/4.9.3/../../../arm-none-eabi/lib/armv7-m/libm.a(lib_a-e_sqrt.o)
 .debug_line    0x0000000000004f0b      0x1b0 /usr/lib/gcc/arm-none-eabi/4.9.3/../../../arm-none-eabi/lib/armv7-m/libm.a(lib_a-s_atan.o)
 .debug_line    0x00000000000050bb      0x151 /usr/lib/gcc/arm-none-eabi/4.9.3/../../../arm-none-eabi/lib/armv7-m/libm.a(lib_a-s_fabs.o)
 .debug_line    0x000000000000520c      0x149 /usr/lib/gcc/arm-none-eabi/4.9.3/../../../arm-none-eabi/lib/armv7-m/libm.a(lib_a-s_fpclassify.o)
 .debug_line    0x0000000000005355       0xa5 /usr/lib/gcc/arm-none-eabi/4.9.3/../../../arm-none-eabi/lib/armv7-m/libm.a(lib_a-s_lib_ver.o)
 .debug_line    0x00000000000053fa       0xb6 /usr/lib/gcc/arm-none-eabi/4.9.3/../../../arm-none-eabi/lib/armv7-m/libm.a(lib_a-s_matherr.o)
 .debug_line    0x00000000000054b0      0x176 /usr/lib/gcc/arm-none-eabi/4.9.3/armv7-m/libgcc.a(_arm_addsubdf3.o)
 .debug_line    0x0000000000005626      0x19a /usr/lib/gcc/arm-none-eabi/4.9.3/armv7-m/libgcc.a(_arm_muldivdf3.o)
 .debug_line    0x00000000000057c0       0xb7 /usr/lib/gcc/arm-none-eabi/4.9.3/armv7-m/libgcc.a(_arm_cmpdf2.o)
 .debug_line    0x0000000000005877       0x8b /usr/lib/gcc/arm-none-eabi/4.9.3/armv7-m/libgcc.a(_arm_truncdfsf2.o)
 .debug_line    0x0000000000005902      0x117 /usr/lib/gcc/arm-none-eabi/4.9.3/armv7-m/libgcc.a(_arm_addsubsf3.o)
 .debug_line    0x0000000000005a19      0x13a /usr/lib/gcc/arm-none-eabi/4.9.3/armv7-m/libgcc.a(_arm_muldivsf3.o)
 .debug_line    0x0000000000005b53       0xab /usr/lib/gcc/arm-none-eabi/4.9.3/armv7-m/libgcc.a(_arm_cmpsf2.o)
 .debug_line    0x0000000000005bfe       0x77 /usr/lib/gcc/arm-none-eabi/4.9.3/armv7-m/libgcc.a(_arm_fixsfsi.o)
 .debug_line    0x0000000000005c75      0x11a /usr/lib/gcc/arm-none-eabi/4.9.3/../../../arm-none-eabi/lib/armv7-m/libc.a(lib_a-abort.o)
 .debug_line    0x0000000000005d8f      0x192 /usr/lib/gcc/arm-none-eabi/4.9.3/../../../arm-none-eabi/lib/armv7-m/libc.a(lib_a-assert.o)
 .debug_line    0x0000000000005f21      0x10c /usr/lib/gcc/arm-none-eabi/4.9.3/../../../arm-none-eabi/lib/armv7-m/libc.a(lib_a-errno.o)
 .debug_line    0x000000000000602d      0x18c /usr/lib/gcc/arm-none-eabi/4.9.3/../../../arm-none-eabi/lib/armv7-m/libc.a(lib_a-fiprintf.o)
 .debug_line    0x00000000000061b9       0xf1 /usr/lib/gcc/arm-none-eabi/4.9.3/../../../arm-none-eabi/lib/armv7-m/libc.a(lib_a-impure.o)
 .debug_line    0x00000000000062aa       0xbb /usr/lib/gcc/arm-none-eabi/4.9.3/../../../arm-none-eabi/lib/armv7-m/libc.a(lib_a-memcpy.o)
 .debug_line    0x0000000000006365      0x119 /usr/lib/gcc/arm-none-eabi/4.9.3/../../../arm-none-eabi/lib/armv7-m/libc.a(lib_a-memset.o)
 .debug_line    0x000000000000647e      0x258 /usr/lib/gcc/arm-none-eabi/4.9.3/../../../arm-none-eabi/lib/armv7-m/libc.a(lib_a-signal.o)
 .debug_line    0x00000000000066d6      0x174 /usr/lib/gcc/arm-none-eabi/4.9.3/../../../arm-none-eabi/lib/armv7-m/libc.a(lib_a-signalr.o)
 .debug_line    0x000000000000684a      0x749 /usr/lib/gcc/arm-none-eabi/4.9.3/../../../arm-none-eabi/lib/armv7-m/libc.a(lib_a-vfiprintf.o)
 .debug_line    0x0000000000006f93      0x1be /usr/lib/gcc/arm-none-eabi/4.9.3/../../../arm-none-eabi/lib/armv7-m/libc.a(lib_a-wsetup.o)
 .debug_line    0x0000000000007151      0x262 /usr/lib/gcc/arm-none-eabi/4.9.3/../../../arm-none-eabi/lib/armv7-m/libc.a(lib_a-fflush.o)
 .debug_line    0x00000000000073b3      0x313 /usr/lib/gcc/arm-none-eabi/4.9.3/../../../arm-none-eabi/lib/armv7-m/libc.a(lib_a-findfp.o)
 .debug_line    0x00000000000076c6      0x200 /usr/lib/gcc/arm-none-eabi/4.9.3/../../../arm-none-eabi/lib/armv7-m/libc.a(lib_a-fputwc.o)
 .debug_line    0x00000000000078c6      0x271 /usr/lib/gcc/arm-none-eabi/4.9.3/../../../arm-none-eabi/lib/armv7-m/libc.a(lib_a-freer.o)
 .debug_line    0x0000000000007b37      0x2d8 /usr/lib/gcc/arm-none-eabi/4.9.3/../../../arm-none-eabi/lib/armv7-m/libc.a(lib_a-fvwrite.o)
 .debug_line    0x0000000000007e0f      0x1a3 /usr/lib/gcc/arm-none-eabi/4.9.3/../../../arm-none-eabi/lib/armv7-m/libc.a(lib_a-fwalk.o)
 .debug_line    0x0000000000007fb2      0x203 /usr/lib/gcc/arm-none-eabi/4.9.3/../../../arm-none-eabi/lib/armv7-m/libc.a(lib_a-locale.o)
 .debug_line    0x00000000000081b5      0x1e5 /usr/lib/gcc/arm-none-eabi/4.9.3/../../../arm-none-eabi/lib/armv7-m/libc.a(lib_a-makebuf.o)
 .debug_line    0x000000000000839a      0x385 /usr/lib/gcc/arm-none-eabi/4.9.3/../../../arm-none-eabi/lib/armv7-m/libc.a(lib_a-mallocr.o)
 .debug_line    0x000000000000871f      0x11d /usr/lib/gcc/arm-none-eabi/4.9.3/../../../arm-none-eabi/lib/armv7-m/libc.a(lib_a-memchr.o)
 .debug_line    0x000000000000883c      0x128 /usr/lib/gcc/arm-none-eabi/4.9.3/../../../arm-none-eabi/lib/armv7-m/libc.a(lib_a-memmove.o)
 .debug_line    0x0000000000008964      0x10f /usr/lib/gcc/arm-none-eabi/4.9.3/../../../arm-none-eabi/lib/armv7-m/libc.a(lib_a-mlock.o)
 .debug_line    0x0000000000008a73      0x2af /usr/lib/gcc/arm-none-eabi/4.9.3/../../../arm-none-eabi/lib/armv7-m/libc.a(lib_a-reallocr.o)
 .debug_line    0x0000000000008d22      0x19a /usr/lib/gcc/arm-none-eabi/4.9.3/../../../arm-none-eabi/lib/armv7-m/libc.a(lib_a-reent.o)
 .debug_line    0x0000000000008ebc      0x1d0 /usr/lib/gcc/arm-none-eabi/4.9.3/../../../arm-none-eabi/lib/armv7-m/libc.a(lib_a-stdio.o)
 .debug_line    0x000000000000908c       0xf2 /usr/lib/gcc/arm-none-eabi/4.9.3/../../../arm-none-eabi/lib/armv7-m/libc.a(lib_a-strlen.o)
 .debug_line    0x000000000000917e      0x1e7 /usr/lib/gcc/arm-none-eabi/4.9.3/../../../arm-none-eabi/lib/armv7-m/libc.a(lib_a-wbuf.o)
 .debug_line    0x0000000000009365      0x190 /usr/lib/gcc/arm-none-eabi/4.9.3/../../../arm-none-eabi/lib/armv7-m/libc.a(lib_a-wcrtomb.o)
 .debug_line    0x00000000000094f5      0x191 /usr/lib/gcc/arm-none-eabi/4.9.3/../../../arm-none-eabi/lib/armv7-m/libc.a(lib_a-wctomb_r.o)
 .debug_line    0x0000000000009686      0x1b0 /usr/lib/gcc/arm-none-eabi/4.9.3/../../../arm-none-eabi/lib/armv7-m/libc.a(lib_a-fclose.o)
 .debug_line    0x0000000000009836       0x62 /usr/lib/gcc/arm-none-eabi/4.9.3/armv7-m/libgcc.a(_aeabi_uldivmod.o)
 .debug_line    0x0000000000009898       0x64 /usr/lib/gcc/arm-none-eabi/4.9.3/armv7-m/libgcc.a(bpabi.o)
 .debug_line    0x00000000000098fc       0x5e /usr/lib/gcc/arm-none-eabi/4.9.3/armv7-m/libgcc.a(_dvmd_tls.o)
 .debug_line    0x000000000000995a       0xe1 /usr/lib/gcc/arm-none-eabi/4.9.3/armv7-m/libgcc.a(_divdi3.o)
 .debug_line    0x0000000000009a3b       0xd3 /usr/lib/gcc/arm-none-eabi/4.9.3/armv7-m/libgcc.a(_udivdi3.o)

.debug_str      0x0000000000000000     0x5113
 .debug_str     0x0000000000000000      0x2b9 build/obj/crt0.o
                                        0x30f (size before relaxing)
 .debug_str     0x00000000000002b9       0x5d build/obj/vectors.o
                                        0x1ef (size before relaxing)
 .debug_str     0x0000000000000316      0x2e0 build/obj/chcore_v7m.o
                                        0x4c0 (size before relaxing)
 .debug_str     0x00000000000005f6       0xaf build/obj/nvic.o
                                        0x2da (size before relaxing)
 .debug_str     0x00000000000006a5      0x119 build/obj/chsys.o
                                        0x4ab (size before relaxing)
 .debug_str     0x00000000000007be       0x5d build/obj/chvt.o
                                        0x289 (size before relaxing)
 .debug_str     0x000000000000081b       0xb7 build/obj/chschd.o
                                        0x498 (size before relaxing)
 .debug_str     0x00000000000008d2       0xe4 build/obj/chthreads.o
                                        0x532 (size before relaxing)
 .debug_str     0x00000000000009b6       0x9b build/obj/chmtx.o
                                        0x452 (size before relaxing)
 .debug_str     0x0000000000000a51      0x18a build/obj/chevents.o
                                        0x530 (size before relaxing)
 .debug_str     0x0000000000000bdb      0x130 build/obj/chqueues.o
                                        0x4d1 (size before relaxing)
 .debug_str     0x0000000000000d0b       0x81 build/obj/chmemcore.o
                                        0x250 (size before relaxing)
 .debug_str     0x0000000000000d8c       0xbe build/obj/chheap.o
                                        0x431 (size before relaxing)
 .debug_str     0x0000000000000e4a       0xba build/obj/hal.o
                                        0x260 (size before relaxing)
 .debug_str     0x0000000000000f04      0x262 build/obj/serial.o
                                        0x71c (size before relaxing)
 .debug_str     0x0000000000001166       0x9e build/obj/hal_lld.o
                                        0x27b (size before relaxing)
 .debug_str     0x0000000000001204      0x1e7 build/obj/system_SAM3.o
                                        0x3e2 (size before relaxing)
 .debug_str     0x00000000000013eb      0x2fd build/obj/pal_lld.o
                                        0x65c (size before relaxing)
 .debug_str     0x00000000000016e8      0x255 build/obj/serial_lld.o
                                        0xc64 (size before relaxing)
 .debug_str     0x000000000000193d      0x153 build/obj/pio.o
                                        0x5f7 (size before relaxing)
 .debug_str     0x0000000000001a90      0x13b build/obj/pmc.o
                                        0x457 (size before relaxing)
 .debug_str     0x0000000000001bcb      0x231 build/obj/atmel_twi.o
                                        0x42e (size before relaxing)
 .debug_str     0x0000000000001dfc       0xcf build/obj/atmel_twid.o
                                        0x46a (size before relaxing)
 .debug_str     0x0000000000001ecb       0xc2 build/obj/atmel_psram.o
                                        0x2b8 (size before relaxing)
 .debug_str     0x0000000000001f8d       0x3a build/obj/board.o
                                        0x596 (size before relaxing)
 .debug_str     0x0000000000001fc7      0x4b3 build/obj/syscalls.o
                                        0x6e6 (size before relaxing)
 .debug_str     0x000000000000247a      0x19f build/obj/i2c.o
                                        0x7ee (size before relaxing)
 .debug_str     0x0000000000002619      0xd65 build/obj/lsm9ds1.o
                                       0x11d0 (size before relaxing)
 .debug_str     0x000000000000337e      0x4ad build/obj/main.o
                                       0x1c3a (size before relaxing)
 .debug_str     0x000000000000382b      0x128 /usr/lib/gcc/arm-none-eabi/4.9.3/../../../arm-none-eabi/lib/armv7-m/libm.a(lib_a-w_atan2.o)
                                        0x1d9 (size before relaxing)
 .debug_str     0x0000000000003953       0xc5 /usr/lib/gcc/arm-none-eabi/4.9.3/../../../arm-none-eabi/lib/armv7-m/libm.a(lib_a-w_sqrt.o)
                                        0x274 (size before relaxing)
 .debug_str     0x0000000000003a18       0x7c /usr/lib/gcc/arm-none-eabi/4.9.3/../../../arm-none-eabi/lib/armv7-m/libm.a(lib_a-e_atan2.o)
                                        0x23d (size before relaxing)
 .debug_str     0x0000000000003a94       0x31 /usr/lib/gcc/arm-none-eabi/4.9.3/../../../arm-none-eabi/lib/armv7-m/libm.a(lib_a-e_sqrt.o)
                                        0x21d (size before relaxing)
 .debug_str     0x0000000000003ac5       0x44 /usr/lib/gcc/arm-none-eabi/4.9.3/../../../arm-none-eabi/lib/armv7-m/libm.a(lib_a-s_atan.o)
                                        0x21c (size before relaxing)
 .debug_str     0x0000000000003b09       0x31 /usr/lib/gcc/arm-none-eabi/4.9.3/../../../arm-none-eabi/lib/armv7-m/libm.a(lib_a-s_fabs.o)
                                        0x1ff (size before relaxing)
 .debug_str     0x0000000000003b3a       0x99 /usr/lib/gcc/arm-none-eabi/4.9.3/../../../arm-none-eabi/lib/armv7-m/libm.a(lib_a-s_fpclassify.o)
                                        0x1e5 (size before relaxing)
 .debug_str     0x0000000000003bd3       0x31 /usr/lib/gcc/arm-none-eabi/4.9.3/../../../arm-none-eabi/lib/armv7-m/libm.a(lib_a-s_lib_ver.o)
                                        0x224 (size before relaxing)
 .debug_str     0x0000000000003c04       0x31 /usr/lib/gcc/arm-none-eabi/4.9.3/../../../arm-none-eabi/lib/armv7-m/libm.a(lib_a-s_matherr.o)
                                        0x1f6 (size before relaxing)
 .debug_str     0x0000000000003c35       0x9e /usr/lib/gcc/arm-none-eabi/4.9.3/../../../arm-none-eabi/lib/armv7-m/libc.a(lib_a-abort.o)
                                        0x1be (size before relaxing)
 .debug_str     0x0000000000003cd3       0x47 /usr/lib/gcc/arm-none-eabi/4.9.3/../../../arm-none-eabi/lib/armv7-m/libc.a(lib_a-assert.o)
                                        0x5b4 (size before relaxing)
 .debug_str     0x0000000000003d1a       0x90 /usr/lib/gcc/arm-none-eabi/4.9.3/../../../arm-none-eabi/lib/armv7-m/libc.a(lib_a-errno.o)
                                        0x574 (size before relaxing)
 .debug_str     0x0000000000003daa       0xca /usr/lib/gcc/arm-none-eabi/4.9.3/../../../arm-none-eabi/lib/armv7-m/libc.a(lib_a-fiprintf.o)
                                        0x5bc (size before relaxing)
 .debug_str     0x0000000000003e74       0xb0 /usr/lib/gcc/arm-none-eabi/4.9.3/../../../arm-none-eabi/lib/armv7-m/libc.a(lib_a-impure.o)
                                        0x58c (size before relaxing)
 .debug_str     0x0000000000003f24       0xa0 /usr/lib/gcc/arm-none-eabi/4.9.3/../../../arm-none-eabi/lib/armv7-m/libc.a(lib_a-memset.o)
                                        0x1cf (size before relaxing)
 .debug_str     0x0000000000003fc4      0x103 /usr/lib/gcc/arm-none-eabi/4.9.3/../../../arm-none-eabi/lib/armv7-m/libc.a(lib_a-signal.o)
                                        0x602 (size before relaxing)
 .debug_str     0x00000000000040c7       0x2e /usr/lib/gcc/arm-none-eabi/4.9.3/../../../arm-none-eabi/lib/armv7-m/libc.a(lib_a-signalr.o)
                                        0x588 (size before relaxing)
 .debug_str     0x00000000000040f5      0x208 /usr/lib/gcc/arm-none-eabi/4.9.3/../../../arm-none-eabi/lib/armv7-m/libc.a(lib_a-vfiprintf.o)
                                        0x760 (size before relaxing)
 .debug_str     0x00000000000042fd       0x42 /usr/lib/gcc/arm-none-eabi/4.9.3/../../../arm-none-eabi/lib/armv7-m/libc.a(lib_a-wsetup.o)
                                        0x5ab (size before relaxing)
 .debug_str     0x000000000000433f       0x5d /usr/lib/gcc/arm-none-eabi/4.9.3/../../../arm-none-eabi/lib/armv7-m/libc.a(lib_a-fflush.o)
                                        0x5ec (size before relaxing)
 .debug_str     0x000000000000439c      0x110 /usr/lib/gcc/arm-none-eabi/4.9.3/../../../arm-none-eabi/lib/armv7-m/libc.a(lib_a-findfp.o)
                                        0x6b3 (size before relaxing)
 .debug_str     0x00000000000044ac       0x5f /usr/lib/gcc/arm-none-eabi/4.9.3/../../../arm-none-eabi/lib/armv7-m/libc.a(lib_a-fputwc.o)
                                        0x5ec (size before relaxing)
 .debug_str     0x000000000000450b      0x16e /usr/lib/gcc/arm-none-eabi/4.9.3/../../../arm-none-eabi/lib/armv7-m/libc.a(lib_a-freer.o)
                                        0x6e5 (size before relaxing)
 .debug_str     0x0000000000004679       0x66 /usr/lib/gcc/arm-none-eabi/4.9.3/../../../arm-none-eabi/lib/armv7-m/libc.a(lib_a-fvwrite.o)
                                        0x61e (size before relaxing)
 .debug_str     0x00000000000046df       0x3b /usr/lib/gcc/arm-none-eabi/4.9.3/../../../arm-none-eabi/lib/armv7-m/libc.a(lib_a-fwalk.o)
                                        0x591 (size before relaxing)
 .debug_str     0x000000000000471a      0x261 /usr/lib/gcc/arm-none-eabi/4.9.3/../../../arm-none-eabi/lib/armv7-m/libc.a(lib_a-locale.o)
                                        0x7e9 (size before relaxing)
 .debug_str     0x000000000000497b       0x39 /usr/lib/gcc/arm-none-eabi/4.9.3/../../../arm-none-eabi/lib/armv7-m/libc.a(lib_a-makebuf.o)
                                        0x68e (size before relaxing)
 .debug_str     0x00000000000049b4       0xdf /usr/lib/gcc/arm-none-eabi/4.9.3/../../../arm-none-eabi/lib/armv7-m/libc.a(lib_a-mallocr.o)
                                        0x79b (size before relaxing)
 .debug_str     0x0000000000004a93       0x43 /usr/lib/gcc/arm-none-eabi/4.9.3/../../../arm-none-eabi/lib/armv7-m/libc.a(lib_a-memchr.o)
                                        0x1d5 (size before relaxing)
 .debug_str     0x0000000000004ad6       0x50 /usr/lib/gcc/arm-none-eabi/4.9.3/../../../arm-none-eabi/lib/armv7-m/libc.a(lib_a-memmove.o)
                                        0x1ee (size before relaxing)
 .debug_str     0x0000000000004b26       0x42 /usr/lib/gcc/arm-none-eabi/4.9.3/../../../arm-none-eabi/lib/armv7-m/libc.a(lib_a-mlock.o)
                                        0x595 (size before relaxing)
 .debug_str     0x0000000000004b68       0x49 /usr/lib/gcc/arm-none-eabi/4.9.3/../../../arm-none-eabi/lib/armv7-m/libc.a(lib_a-reallocr.o)
                                        0x66d (size before relaxing)
 .debug_str     0x0000000000004bb1       0x58 /usr/lib/gcc/arm-none-eabi/4.9.3/../../../arm-none-eabi/lib/armv7-m/libc.a(lib_a-reent.o)
                                        0x5ab (size before relaxing)
 .debug_str     0x0000000000004c09       0x69 /usr/lib/gcc/arm-none-eabi/4.9.3/../../../arm-none-eabi/lib/armv7-m/libc.a(lib_a-stdio.o)
                                        0x5e7 (size before relaxing)
 .debug_str     0x0000000000004c72       0xa0 /usr/lib/gcc/arm-none-eabi/4.9.3/../../../arm-none-eabi/lib/armv7-m/libc.a(lib_a-strlen.o)
                                        0x1c8 (size before relaxing)
 .debug_str     0x0000000000004d12       0x33 /usr/lib/gcc/arm-none-eabi/4.9.3/../../../arm-none-eabi/lib/armv7-m/libc.a(lib_a-wbuf.o)
                                        0x5b0 (size before relaxing)
 .debug_str     0x0000000000004d45       0x40 /usr/lib/gcc/arm-none-eabi/4.9.3/../../../arm-none-eabi/lib/armv7-m/libc.a(lib_a-wcrtomb.o)
                                        0x5c3 (size before relaxing)
 .debug_str     0x0000000000004d85       0x50 /usr/lib/gcc/arm-none-eabi/4.9.3/../../../arm-none-eabi/lib/armv7-m/libc.a(lib_a-wctomb_r.o)
                                        0x5cc (size before relaxing)
 .debug_str     0x0000000000004dd5       0x3e /usr/lib/gcc/arm-none-eabi/4.9.3/../../../arm-none-eabi/lib/armv7-m/libc.a(lib_a-fclose.o)
                                        0x5d9 (size before relaxing)
 .debug_str     0x0000000000004e13      0x19d /usr/lib/gcc/arm-none-eabi/4.9.3/armv7-m/libgcc.a(bpabi.o)
                                        0x1cc (size before relaxing)
 .debug_str     0x0000000000004fb0      0x163 /usr/lib/gcc/arm-none-eabi/4.9.3/armv7-m/libgcc.a(_divdi3.o)
                                        0x27a (size before relaxing)
 .debug_str     0x0000000000005113      0x27b /usr/lib/gcc/arm-none-eabi/4.9.3/armv7-m/libgcc.a(_udivdi3.o)

.comment        0x0000000000000000       0x70
 .comment       0x0000000000000000       0x38 build/obj/crt0.o
                                         0x39 (size before relaxing)
 .comment       0x0000000000000038       0x39 build/obj/vectors.o
 .comment       0x0000000000000038       0x39 build/obj/chcore_v7m.o
 .comment       0x0000000000000038       0x39 build/obj/nvic.o
 .comment       0x0000000000000038       0x39 build/obj/chsys.o
 .comment       0x0000000000000038       0x39 build/obj/chvt.o
 .comment       0x0000000000000038       0x39 build/obj/chschd.o
 .comment       0x0000000000000038       0x39 build/obj/chthreads.o
 .comment       0x0000000000000038       0x39 build/obj/chmtx.o
 .comment       0x0000000000000038       0x39 build/obj/chevents.o
 .comment       0x0000000000000038       0x39 build/obj/chqueues.o
 .comment       0x0000000000000038       0x39 build/obj/chmemcore.o
 .comment       0x0000000000000038       0x39 build/obj/chheap.o
 .comment       0x0000000000000038       0x39 build/obj/hal.o
 .comment       0x0000000000000038       0x39 build/obj/serial.o
 .comment       0x0000000000000038       0x39 build/obj/hal_lld.o
 .comment       0x0000000000000038       0x39 build/obj/system_SAM3.o
 .comment       0x0000000000000038       0x39 build/obj/pal_lld.o
 .comment       0x0000000000000038       0x39 build/obj/serial_lld.o
 .comment       0x0000000000000038       0x39 build/obj/pio.o
 .comment       0x0000000000000038       0x39 build/obj/pmc.o
 .comment       0x0000000000000038       0x39 build/obj/atmel_twi.o
 .comment       0x0000000000000038       0x39 build/obj/atmel_twid.o
 .comment       0x0000000000000038       0x39 build/obj/atmel_psram.o
 .comment       0x0000000000000038       0x39 build/obj/board.o
 .comment       0x0000000000000038       0x39 build/obj/syscalls.o
 .comment       0x0000000000000038       0x39 build/obj/i2c.o
 .comment       0x0000000000000038       0x39 build/obj/lsm9ds1.o
 .comment       0x0000000000000038       0x39 build/obj/main.o
 .comment       0x0000000000000038       0x38 /usr/lib/gcc/arm-none-eabi/4.9.3/../../../arm-none-eabi/lib/armv7-m/libm.a(lib_a-w_atan2.o)
                                         0x39 (size before relaxing)
 .comment       0x0000000000000070       0x39 /usr/lib/gcc/arm-none-eabi/4.9.3/../../../arm-none-eabi/lib/armv7-m/libm.a(lib_a-w_sqrt.o)
 .comment       0x0000000000000070       0x39 /usr/lib/gcc/arm-none-eabi/4.9.3/../../../arm-none-eabi/lib/armv7-m/libm.a(lib_a-e_atan2.o)
 .comment       0x0000000000000070       0x39 /usr/lib/gcc/arm-none-eabi/4.9.3/../../../arm-none-eabi/lib/armv7-m/libm.a(lib_a-e_sqrt.o)
 .comment       0x0000000000000070       0x39 /usr/lib/gcc/arm-none-eabi/4.9.3/../../../arm-none-eabi/lib/armv7-m/libm.a(lib_a-s_atan.o)
 .comment       0x0000000000000070       0x39 /usr/lib/gcc/arm-none-eabi/4.9.3/../../../arm-none-eabi/lib/armv7-m/libm.a(lib_a-s_fabs.o)
 .comment       0x0000000000000070       0x39 /usr/lib/gcc/arm-none-eabi/4.9.3/../../../arm-none-eabi/lib/armv7-m/libm.a(lib_a-s_fpclassify.o)
 .comment       0x0000000000000070       0x39 /usr/lib/gcc/arm-none-eabi/4.9.3/../../../arm-none-eabi/lib/armv7-m/libm.a(lib_a-s_lib_ver.o)
 .comment       0x0000000000000070       0x39 /usr/lib/gcc/arm-none-eabi/4.9.3/../../../arm-none-eabi/lib/armv7-m/libm.a(lib_a-s_matherr.o)
 .comment       0x0000000000000070       0x39 /usr/lib/gcc/arm-none-eabi/4.9.3/../../../arm-none-eabi/lib/armv7-m/libc.a(lib_a-abort.o)
 .comment       0x0000000000000070       0x39 /usr/lib/gcc/arm-none-eabi/4.9.3/../../../arm-none-eabi/lib/armv7-m/libc.a(lib_a-assert.o)
 .comment       0x0000000000000070       0x39 /usr/lib/gcc/arm-none-eabi/4.9.3/../../../arm-none-eabi/lib/armv7-m/libc.a(lib_a-errno.o)
 .comment       0x0000000000000070       0x39 /usr/lib/gcc/arm-none-eabi/4.9.3/../../../arm-none-eabi/lib/armv7-m/libc.a(lib_a-fiprintf.o)
 .comment       0x0000000000000070       0x39 /usr/lib/gcc/arm-none-eabi/4.9.3/../../../arm-none-eabi/lib/armv7-m/libc.a(lib_a-impure.o)
 .comment       0x0000000000000070       0x39 /usr/lib/gcc/arm-none-eabi/4.9.3/../../../arm-none-eabi/lib/armv7-m/libc.a(lib_a-memset.o)
 .comment       0x0000000000000070       0x39 /usr/lib/gcc/arm-none-eabi/4.9.3/../../../arm-none-eabi/lib/armv7-m/libc.a(lib_a-signal.o)
 .comment       0x0000000000000070       0x39 /usr/lib/gcc/arm-none-eabi/4.9.3/../../../arm-none-eabi/lib/armv7-m/libc.a(lib_a-signalr.o)
 .comment       0x0000000000000070       0x39 /usr/lib/gcc/arm-none-eabi/4.9.3/../../../arm-none-eabi/lib/armv7-m/libc.a(lib_a-vfiprintf.o)
 .comment       0x0000000000000070       0x39 /usr/lib/gcc/arm-none-eabi/4.9.3/../../../arm-none-eabi/lib/armv7-m/libc.a(lib_a-wsetup.o)
 .comment       0x0000000000000070       0x39 /usr/lib/gcc/arm-none-eabi/4.9.3/../../../arm-none-eabi/lib/armv7-m/libc.a(lib_a-fflush.o)
 .comment       0x0000000000000070       0x39 /usr/lib/gcc/arm-none-eabi/4.9.3/../../../arm-none-eabi/lib/armv7-m/libc.a(lib_a-findfp.o)
 .comment       0x0000000000000070       0x39 /usr/lib/gcc/arm-none-eabi/4.9.3/../../../arm-none-eabi/lib/armv7-m/libc.a(lib_a-fputwc.o)
 .comment       0x0000000000000070       0x39 /usr/lib/gcc/arm-none-eabi/4.9.3/../../../arm-none-eabi/lib/armv7-m/libc.a(lib_a-freer.o)
 .comment       0x0000000000000070       0x39 /usr/lib/gcc/arm-none-eabi/4.9.3/../../../arm-none-eabi/lib/armv7-m/libc.a(lib_a-fvwrite.o)
 .comment       0x0000000000000070       0x39 /usr/lib/gcc/arm-none-eabi/4.9.3/../../../arm-none-eabi/lib/armv7-m/libc.a(lib_a-fwalk.o)
 .comment       0x0000000000000070       0x39 /usr/lib/gcc/arm-none-eabi/4.9.3/../../../arm-none-eabi/lib/armv7-m/libc.a(lib_a-locale.o)
 .comment       0x0000000000000070       0x39 /usr/lib/gcc/arm-none-eabi/4.9.3/../../../arm-none-eabi/lib/armv7-m/libc.a(lib_a-makebuf.o)
 .comment       0x0000000000000070       0x39 /usr/lib/gcc/arm-none-eabi/4.9.3/../../../arm-none-eabi/lib/armv7-m/libc.a(lib_a-mallocr.o)
 .comment       0x0000000000000070       0x39 /usr/lib/gcc/arm-none-eabi/4.9.3/../../../arm-none-eabi/lib/armv7-m/libc.a(lib_a-memchr.o)
 .comment       0x0000000000000070       0x39 /usr/lib/gcc/arm-none-eabi/4.9.3/../../../arm-none-eabi/lib/armv7-m/libc.a(lib_a-memmove.o)
 .comment       0x0000000000000070       0x39 /usr/lib/gcc/arm-none-eabi/4.9.3/../../../arm-none-eabi/lib/armv7-m/libc.a(lib_a-mlock.o)
 .comment       0x0000000000000070       0x39 /usr/lib/gcc/arm-none-eabi/4.9.3/../../../arm-none-eabi/lib/armv7-m/libc.a(lib_a-reallocr.o)
 .comment       0x0000000000000070       0x39 /usr/lib/gcc/arm-none-eabi/4.9.3/../../../arm-none-eabi/lib/armv7-m/libc.a(lib_a-reent.o)
 .comment       0x0000000000000070       0x39 /usr/lib/gcc/arm-none-eabi/4.9.3/../../../arm-none-eabi/lib/armv7-m/libc.a(lib_a-stdio.o)
 .comment       0x0000000000000070       0x39 /usr/lib/gcc/arm-none-eabi/4.9.3/../../../arm-none-eabi/lib/armv7-m/libc.a(lib_a-strlen.o)
 .comment       0x0000000000000070       0x39 /usr/lib/gcc/arm-none-eabi/4.9.3/../../../arm-none-eabi/lib/armv7-m/libc.a(lib_a-wbuf.o)
 .comment       0x0000000000000070       0x39 /usr/lib/gcc/arm-none-eabi/4.9.3/../../../arm-none-eabi/lib/armv7-m/libc.a(lib_a-wcrtomb.o)
 .comment       0x0000000000000070       0x39 /usr/lib/gcc/arm-none-eabi/4.9.3/../../../arm-none-eabi/lib/armv7-m/libc.a(lib_a-wctomb_r.o)
 .comment       0x0000000000000070       0x39 /usr/lib/gcc/arm-none-eabi/4.9.3/../../../arm-none-eabi/lib/armv7-m/libc.a(lib_a-fclose.o)
 .comment       0x0000000000000070       0x39 /usr/lib/gcc/arm-none-eabi/4.9.3/armv7-m/libgcc.a(bpabi.o)
 .comment       0x0000000000000070       0x39 /usr/lib/gcc/arm-none-eabi/4.9.3/armv7-m/libgcc.a(_divdi3.o)
 .comment       0x0000000000000070       0x39 /usr/lib/gcc/arm-none-eabi/4.9.3/armv7-m/libgcc.a(_udivdi3.o)

.ARM.attributes
                0x0000000000000000       0x31
 .ARM.attributes
                0x0000000000000000       0x33 build/obj/crt0.o
 .ARM.attributes
                0x0000000000000033       0x33 build/obj/vectors.o
 .ARM.attributes
                0x0000000000000066       0x33 build/obj/chcore_v7m.o
 .ARM.attributes
                0x0000000000000099       0x33 build/obj/nvic.o
 .ARM.attributes
                0x00000000000000cc       0x33 build/obj/chsys.o
 .ARM.attributes
                0x00000000000000ff       0x33 build/obj/chvt.o
 .ARM.attributes
                0x0000000000000132       0x33 build/obj/chschd.o
 .ARM.attributes
                0x0000000000000165       0x33 build/obj/chthreads.o
 .ARM.attributes
                0x0000000000000198       0x33 build/obj/chmtx.o
 .ARM.attributes
                0x00000000000001cb       0x33 build/obj/chevents.o
 .ARM.attributes
                0x00000000000001fe       0x33 build/obj/chqueues.o
 .ARM.attributes
                0x0000000000000231       0x33 build/obj/chmemcore.o
 .ARM.attributes
                0x0000000000000264       0x33 build/obj/chheap.o
 .ARM.attributes
                0x0000000000000297       0x33 build/obj/hal.o
 .ARM.attributes
                0x00000000000002ca       0x33 build/obj/serial.o
 .ARM.attributes
                0x00000000000002fd       0x33 build/obj/hal_lld.o
 .ARM.attributes
                0x0000000000000330       0x33 build/obj/system_SAM3.o
 .ARM.attributes
                0x0000000000000363       0x33 build/obj/pal_lld.o
 .ARM.attributes
                0x0000000000000396       0x33 build/obj/serial_lld.o
 .ARM.attributes
                0x00000000000003c9       0x33 build/obj/pio.o
 .ARM.attributes
                0x00000000000003fc       0x33 build/obj/pmc.o
 .ARM.attributes
                0x000000000000042f       0x33 build/obj/atmel_twi.o
 .ARM.attributes
                0x0000000000000462       0x33 build/obj/atmel_twid.o
 .ARM.attributes
                0x0000000000000495       0x33 build/obj/atmel_psram.o
 .ARM.attributes
                0x00000000000004c8       0x33 build/obj/board.o
 .ARM.attributes
                0x00000000000004fb       0x33 build/obj/syscalls.o
 .ARM.attributes
                0x000000000000052e       0x33 build/obj/i2c.o
 .ARM.attributes
                0x0000000000000561       0x33 build/obj/lsm9ds1.o
 .ARM.attributes
                0x0000000000000594       0x33 build/obj/main.o
 .ARM.attributes
                0x00000000000005c7       0x2d /usr/lib/gcc/arm-none-eabi/4.9.3/../../../arm-none-eabi/lib/armv7-m/libm.a(lib_a-w_atan2.o)
 .ARM.attributes
                0x00000000000005f4       0x2d /usr/lib/gcc/arm-none-eabi/4.9.3/../../../arm-none-eabi/lib/armv7-m/libm.a(lib_a-w_sqrt.o)
 .ARM.attributes
                0x0000000000000621       0x2d /usr/lib/gcc/arm-none-eabi/4.9.3/../../../arm-none-eabi/lib/armv7-m/libm.a(lib_a-e_atan2.o)
 .ARM.attributes
                0x000000000000064e       0x2d /usr/lib/gcc/arm-none-eabi/4.9.3/../../../arm-none-eabi/lib/armv7-m/libm.a(lib_a-e_sqrt.o)
 .ARM.attributes
                0x000000000000067b       0x2d /usr/lib/gcc/arm-none-eabi/4.9.3/../../../arm-none-eabi/lib/armv7-m/libm.a(lib_a-s_atan.o)
 .ARM.attributes
                0x00000000000006a8       0x2d /usr/lib/gcc/arm-none-eabi/4.9.3/../../../arm-none-eabi/lib/armv7-m/libm.a(lib_a-s_fabs.o)
 .ARM.attributes
                0x00000000000006d5       0x2d /usr/lib/gcc/arm-none-eabi/4.9.3/../../../arm-none-eabi/lib/armv7-m/libm.a(lib_a-s_fpclassify.o)
 .ARM.attributes
                0x0000000000000702       0x2d /usr/lib/gcc/arm-none-eabi/4.9.3/../../../arm-none-eabi/lib/armv7-m/libm.a(lib_a-s_lib_ver.o)
 .ARM.attributes
                0x000000000000072f       0x2d /usr/lib/gcc/arm-none-eabi/4.9.3/../../../arm-none-eabi/lib/armv7-m/libm.a(lib_a-s_matherr.o)
 .ARM.attributes
                0x000000000000075c       0x1d /usr/lib/gcc/arm-none-eabi/4.9.3/armv7-m/libgcc.a(_arm_addsubdf3.o)
 .ARM.attributes
                0x0000000000000779       0x1d /usr/lib/gcc/arm-none-eabi/4.9.3/armv7-m/libgcc.a(_arm_muldivdf3.o)
 .ARM.attributes
                0x0000000000000796       0x1d /usr/lib/gcc/arm-none-eabi/4.9.3/armv7-m/libgcc.a(_arm_cmpdf2.o)
 .ARM.attributes
                0x00000000000007b3       0x1d /usr/lib/gcc/arm-none-eabi/4.9.3/armv7-m/libgcc.a(_arm_truncdfsf2.o)
 .ARM.attributes
                0x00000000000007d0       0x1d /usr/lib/gcc/arm-none-eabi/4.9.3/armv7-m/libgcc.a(_arm_addsubsf3.o)
 .ARM.attributes
                0x00000000000007ed       0x1d /usr/lib/gcc/arm-none-eabi/4.9.3/armv7-m/libgcc.a(_arm_muldivsf3.o)
 .ARM.attributes
                0x000000000000080a       0x1d /usr/lib/gcc/arm-none-eabi/4.9.3/armv7-m/libgcc.a(_arm_cmpsf2.o)
 .ARM.attributes
                0x0000000000000827       0x1d /usr/lib/gcc/arm-none-eabi/4.9.3/armv7-m/libgcc.a(_arm_fixsfsi.o)
 .ARM.attributes
                0x0000000000000844       0x2d /usr/lib/gcc/arm-none-eabi/4.9.3/../../../arm-none-eabi/lib/armv7-m/libc.a(lib_a-abort.o)
 .ARM.attributes
                0x0000000000000871       0x2d /usr/lib/gcc/arm-none-eabi/4.9.3/../../../arm-none-eabi/lib/armv7-m/libc.a(lib_a-assert.o)
 .ARM.attributes
                0x000000000000089e       0x2d /usr/lib/gcc/arm-none-eabi/4.9.3/../../../arm-none-eabi/lib/armv7-m/libc.a(lib_a-errno.o)
 .ARM.attributes
                0x00000000000008cb       0x2d /usr/lib/gcc/arm-none-eabi/4.9.3/../../../arm-none-eabi/lib/armv7-m/libc.a(lib_a-fiprintf.o)
 .ARM.attributes
                0x00000000000008f8       0x2d /usr/lib/gcc/arm-none-eabi/4.9.3/../../../arm-none-eabi/lib/armv7-m/libc.a(lib_a-impure.o)
 .ARM.attributes
                0x0000000000000925       0x1b /usr/lib/gcc/arm-none-eabi/4.9.3/../../../arm-none-eabi/lib/armv7-m/libc.a(lib_a-memcpy.o)
 .ARM.attributes
                0x0000000000000940       0x2d /usr/lib/gcc/arm-none-eabi/4.9.3/../../../arm-none-eabi/lib/armv7-m/libc.a(lib_a-memset.o)
 .ARM.attributes
                0x000000000000096d       0x2d /usr/lib/gcc/arm-none-eabi/4.9.3/../../../arm-none-eabi/lib/armv7-m/libc.a(lib_a-signal.o)
 .ARM.attributes
                0x000000000000099a       0x2d /usr/lib/gcc/arm-none-eabi/4.9.3/../../../arm-none-eabi/lib/armv7-m/libc.a(lib_a-signalr.o)
 .ARM.attributes
                0x00000000000009c7       0x2d /usr/lib/gcc/arm-none-eabi/4.9.3/../../../arm-none-eabi/lib/armv7-m/libc.a(lib_a-vfiprintf.o)
 .ARM.attributes
                0x00000000000009f4       0x2d /usr/lib/gcc/arm-none-eabi/4.9.3/../../../arm-none-eabi/lib/armv7-m/libc.a(lib_a-wsetup.o)
 .ARM.attributes
                0x0000000000000a21       0x2d /usr/lib/gcc/arm-none-eabi/4.9.3/../../../arm-none-eabi/lib/armv7-m/libc.a(lib_a-fflush.o)
 .ARM.attributes
                0x0000000000000a4e       0x2d /usr/lib/gcc/arm-none-eabi/4.9.3/../../../arm-none-eabi/lib/armv7-m/libc.a(lib_a-findfp.o)
 .ARM.attributes
                0x0000000000000a7b       0x2d /usr/lib/gcc/arm-none-eabi/4.9.3/../../../arm-none-eabi/lib/armv7-m/libc.a(lib_a-fputwc.o)
 .ARM.attributes
                0x0000000000000aa8       0x2d /usr/lib/gcc/arm-none-eabi/4.9.3/../../../arm-none-eabi/lib/armv7-m/libc.a(lib_a-freer.o)
 .ARM.attributes
                0x0000000000000ad5       0x2d /usr/lib/gcc/arm-none-eabi/4.9.3/../../../arm-none-eabi/lib/armv7-m/libc.a(lib_a-fvwrite.o)
 .ARM.attributes
                0x0000000000000b02       0x2d /usr/lib/gcc/arm-none-eabi/4.9.3/../../../arm-none-eabi/lib/armv7-m/libc.a(lib_a-fwalk.o)
 .ARM.attributes
                0x0000000000000b2f       0x2d /usr/lib/gcc/arm-none-eabi/4.9.3/../../../arm-none-eabi/lib/armv7-m/libc.a(lib_a-locale.o)
 .ARM.attributes
                0x0000000000000b5c       0x2d /usr/lib/gcc/arm-none-eabi/4.9.3/../../../arm-none-eabi/lib/armv7-m/libc.a(lib_a-makebuf.o)
 .ARM.attributes
                0x0000000000000b89       0x2d /usr/lib/gcc/arm-none-eabi/4.9.3/../../../arm-none-eabi/lib/armv7-m/libc.a(lib_a-mallocr.o)
 .ARM.attributes
                0x0000000000000bb6       0x2d /usr/lib/gcc/arm-none-eabi/4.9.3/../../../arm-none-eabi/lib/armv7-m/libc.a(lib_a-memchr.o)
 .ARM.attributes
                0x0000000000000be3       0x2d /usr/lib/gcc/arm-none-eabi/4.9.3/../../../arm-none-eabi/lib/armv7-m/libc.a(lib_a-memmove.o)
 .ARM.attributes
                0x0000000000000c10       0x2d /usr/lib/gcc/arm-none-eabi/4.9.3/../../../arm-none-eabi/lib/armv7-m/libc.a(lib_a-mlock.o)
 .ARM.attributes
                0x0000000000000c3d       0x2d /usr/lib/gcc/arm-none-eabi/4.9.3/../../../arm-none-eabi/lib/armv7-m/libc.a(lib_a-reallocr.o)
 .ARM.attributes
                0x0000000000000c6a       0x2d /usr/lib/gcc/arm-none-eabi/4.9.3/../../../arm-none-eabi/lib/armv7-m/libc.a(lib_a-reent.o)
 .ARM.attributes
                0x0000000000000c97       0x2d /usr/lib/gcc/arm-none-eabi/4.9.3/../../../arm-none-eabi/lib/armv7-m/libc.a(lib_a-stdio.o)
 .ARM.attributes
                0x0000000000000cc4       0x2d /usr/lib/gcc/arm-none-eabi/4.9.3/../../../arm-none-eabi/lib/armv7-m/libc.a(lib_a-strlen.o)
 .ARM.attributes
                0x0000000000000cf1       0x2d /usr/lib/gcc/arm-none-eabi/4.9.3/../../../arm-none-eabi/lib/armv7-m/libc.a(lib_a-wbuf.o)
 .ARM.attributes
                0x0000000000000d1e       0x2d /usr/lib/gcc/arm-none-eabi/4.9.3/../../../arm-none-eabi/lib/armv7-m/libc.a(lib_a-wcrtomb.o)
 .ARM.attributes
                0x0000000000000d4b       0x2d /usr/lib/gcc/arm-none-eabi/4.9.3/../../../arm-none-eabi/lib/armv7-m/libc.a(lib_a-wctomb_r.o)
 .ARM.attributes
                0x0000000000000d78       0x2d /usr/lib/gcc/arm-none-eabi/4.9.3/../../../arm-none-eabi/lib/armv7-m/libc.a(lib_a-fclose.o)
 .ARM.attributes
                0x0000000000000da5       0x1d /usr/lib/gcc/arm-none-eabi/4.9.3/armv7-m/libgcc.a(_aeabi_uldivmod.o)
 .ARM.attributes
                0x0000000000000dc2       0x2d /usr/lib/gcc/arm-none-eabi/4.9.3/armv7-m/libgcc.a(bpabi.o)
 .ARM.attributes
                0x0000000000000def       0x1d /usr/lib/gcc/arm-none-eabi/4.9.3/armv7-m/libgcc.a(_dvmd_tls.o)
 .ARM.attributes
                0x0000000000000e0c       0x2d /usr/lib/gcc/arm-none-eabi/4.9.3/armv7-m/libgcc.a(_divdi3.o)
 .ARM.attributes
                0x0000000000000e39       0x2d /usr/lib/gcc/arm-none-eabi/4.9.3/armv7-m/libgcc.a(_udivdi3.o)

.debug_frame    0x0000000000000000     0x2a94
 .debug_frame   0x0000000000000000       0x50 build/obj/crt0.o
 .debug_frame   0x0000000000000050       0x20 build/obj/vectors.o
 .debug_frame   0x0000000000000070       0xa0 build/obj/chcore_v7m.o
 .debug_frame   0x0000000000000110       0x74 build/obj/nvic.o
 .debug_frame   0x0000000000000184       0x5c build/obj/chsys.o
 .debug_frame   0x00000000000001e0       0x5c build/obj/chvt.o
 .debug_frame   0x000000000000023c      0x128 build/obj/chschd.o
 .debug_frame   0x0000000000000364      0x18c build/obj/chthreads.o
 .debug_frame   0x00000000000004f0       0xf4 build/obj/chmtx.o
 .debug_frame   0x00000000000005e4      0x1c4 build/obj/chevents.o
 .debug_frame   0x00000000000007a8      0x188 build/obj/chqueues.o
 .debug_frame   0x0000000000000930       0x68 build/obj/chmemcore.o
 .debug_frame   0x0000000000000998       0xb4 build/obj/chheap.o
 .debug_frame   0x0000000000000a4c       0x30 build/obj/hal.o
 .debug_frame   0x0000000000000a7c      0x160 build/obj/serial.o
 .debug_frame   0x0000000000000bdc       0x3c build/obj/hal_lld.o
 .debug_frame   0x0000000000000c18       0x58 build/obj/system_SAM3.o
 .debug_frame   0x0000000000000c70       0x48 build/obj/pal_lld.o
 .debug_frame   0x0000000000000cb8      0x108 build/obj/serial_lld.o
 .debug_frame   0x0000000000000dc0       0x80 build/obj/pio.o
 .debug_frame   0x0000000000000e40      0x108 build/obj/pmc.o
 .debug_frame   0x0000000000000f48      0x1b8 build/obj/atmel_twi.o
 .debug_frame   0x0000000000001100       0xdc build/obj/atmel_twid.o
 .debug_frame   0x00000000000011dc       0x2c build/obj/atmel_psram.o
 .debug_frame   0x0000000000001208       0x40 build/obj/board.o
 .debug_frame   0x0000000000001248       0xc8 build/obj/syscalls.o
 .debug_frame   0x0000000000001310       0xec build/obj/i2c.o
 .debug_frame   0x00000000000013fc      0x7a4 build/obj/lsm9ds1.o
 .debug_frame   0x0000000000001ba0      0x19c build/obj/main.o
 .debug_frame   0x0000000000001d3c       0x20 /usr/lib/gcc/arm-none-eabi/4.9.3/../../../arm-none-eabi/lib/armv7-m/libm.a(lib_a-w_atan2.o)
 .debug_frame   0x0000000000001d5c       0x44 /usr/lib/gcc/arm-none-eabi/4.9.3/../../../arm-none-eabi/lib/armv7-m/libm.a(lib_a-w_sqrt.o)
 .debug_frame   0x0000000000001da0       0x48 /usr/lib/gcc/arm-none-eabi/4.9.3/../../../arm-none-eabi/lib/armv7-m/libm.a(lib_a-e_atan2.o)
 .debug_frame   0x0000000000001de8       0x30 /usr/lib/gcc/arm-none-eabi/4.9.3/../../../arm-none-eabi/lib/armv7-m/libm.a(lib_a-e_sqrt.o)
 .debug_frame   0x0000000000001e18       0x38 /usr/lib/gcc/arm-none-eabi/4.9.3/../../../arm-none-eabi/lib/armv7-m/libm.a(lib_a-s_atan.o)
 .debug_frame   0x0000000000001e50       0x20 /usr/lib/gcc/arm-none-eabi/4.9.3/../../../arm-none-eabi/lib/armv7-m/libm.a(lib_a-s_fabs.o)
 .debug_frame   0x0000000000001e70       0x34 /usr/lib/gcc/arm-none-eabi/4.9.3/../../../arm-none-eabi/lib/armv7-m/libm.a(lib_a-s_fpclassify.o)
 .debug_frame   0x0000000000001ea4       0x20 /usr/lib/gcc/arm-none-eabi/4.9.3/../../../arm-none-eabi/lib/armv7-m/libm.a(lib_a-s_matherr.o)
 .debug_frame   0x0000000000001ec4       0x28 /usr/lib/gcc/arm-none-eabi/4.9.3/../../../arm-none-eabi/lib/armv7-m/libc.a(lib_a-abort.o)
 .debug_frame   0x0000000000001eec       0x40 /usr/lib/gcc/arm-none-eabi/4.9.3/../../../arm-none-eabi/lib/armv7-m/libc.a(lib_a-assert.o)
 .debug_frame   0x0000000000001f2c       0x20 /usr/lib/gcc/arm-none-eabi/4.9.3/../../../arm-none-eabi/lib/armv7-m/libc.a(lib_a-errno.o)
 .debug_frame   0x0000000000001f4c       0x74 /usr/lib/gcc/arm-none-eabi/4.9.3/../../../arm-none-eabi/lib/armv7-m/libc.a(lib_a-fiprintf.o)
 .debug_frame   0x0000000000001fc0       0x34 /usr/lib/gcc/arm-none-eabi/4.9.3/../../../arm-none-eabi/lib/armv7-m/libc.a(lib_a-memset.o)
 .debug_frame   0x0000000000001ff4       0xe4 /usr/lib/gcc/arm-none-eabi/4.9.3/../../../arm-none-eabi/lib/armv7-m/libc.a(lib_a-signal.o)
 .debug_frame   0x00000000000020d8       0x3c /usr/lib/gcc/arm-none-eabi/4.9.3/../../../arm-none-eabi/lib/armv7-m/libc.a(lib_a-signalr.o)
 .debug_frame   0x0000000000002114       0xd8 /usr/lib/gcc/arm-none-eabi/4.9.3/../../../arm-none-eabi/lib/armv7-m/libc.a(lib_a-vfiprintf.o)
 .debug_frame   0x00000000000021ec       0x2c /usr/lib/gcc/arm-none-eabi/4.9.3/../../../arm-none-eabi/lib/armv7-m/libc.a(lib_a-wsetup.o)
 .debug_frame   0x0000000000002218       0x6c /usr/lib/gcc/arm-none-eabi/4.9.3/../../../arm-none-eabi/lib/armv7-m/libc.a(lib_a-fflush.o)
 .debug_frame   0x0000000000002284      0x124 /usr/lib/gcc/arm-none-eabi/4.9.3/../../../arm-none-eabi/lib/armv7-m/libc.a(lib_a-findfp.o)
 .debug_frame   0x00000000000023a8       0x84 /usr/lib/gcc/arm-none-eabi/4.9.3/../../../arm-none-eabi/lib/armv7-m/libc.a(lib_a-fputwc.o)
 .debug_frame   0x000000000000242c       0x74 /usr/lib/gcc/arm-none-eabi/4.9.3/../../../arm-none-eabi/lib/armv7-m/libc.a(lib_a-freer.o)
 .debug_frame   0x00000000000024a0       0x68 /usr/lib/gcc/arm-none-eabi/4.9.3/../../../arm-none-eabi/lib/armv7-m/libc.a(lib_a-fvwrite.o)
 .debug_frame   0x0000000000002508       0x54 /usr/lib/gcc/arm-none-eabi/4.9.3/../../../arm-none-eabi/lib/armv7-m/libc.a(lib_a-fwalk.o)
 .debug_frame   0x000000000000255c       0x9c /usr/lib/gcc/arm-none-eabi/4.9.3/../../../arm-none-eabi/lib/armv7-m/libc.a(lib_a-locale.o)
 .debug_frame   0x00000000000025f8       0x48 /usr/lib/gcc/arm-none-eabi/4.9.3/../../../arm-none-eabi/lib/armv7-m/libc.a(lib_a-makebuf.o)
 .debug_frame   0x0000000000002640       0x54 /usr/lib/gcc/arm-none-eabi/4.9.3/../../../arm-none-eabi/lib/armv7-m/libc.a(lib_a-mallocr.o)
 .debug_frame   0x0000000000002694       0x3c /usr/lib/gcc/arm-none-eabi/4.9.3/../../../arm-none-eabi/lib/armv7-m/libc.a(lib_a-memchr.o)
 .debug_frame   0x00000000000026d0       0x30 /usr/lib/gcc/arm-none-eabi/4.9.3/../../../arm-none-eabi/lib/armv7-m/libc.a(lib_a-memmove.o)
 .debug_frame   0x0000000000002700       0x30 /usr/lib/gcc/arm-none-eabi/4.9.3/../../../arm-none-eabi/lib/armv7-m/libc.a(lib_a-mlock.o)
 .debug_frame   0x0000000000002730       0x58 /usr/lib/gcc/arm-none-eabi/4.9.3/../../../arm-none-eabi/lib/armv7-m/libc.a(lib_a-reallocr.o)
 .debug_frame   0x0000000000002788       0x58 /usr/lib/gcc/arm-none-eabi/4.9.3/../../../arm-none-eabi/lib/armv7-m/libc.a(lib_a-reent.o)
 .debug_frame   0x00000000000027e0       0x88 /usr/lib/gcc/arm-none-eabi/4.9.3/../../../arm-none-eabi/lib/armv7-m/libc.a(lib_a-stdio.o)
 .debug_frame   0x0000000000002868       0x20 /usr/lib/gcc/arm-none-eabi/4.9.3/../../../arm-none-eabi/lib/armv7-m/libc.a(lib_a-strlen.o)
 .debug_frame   0x0000000000002888       0x3c /usr/lib/gcc/arm-none-eabi/4.9.3/../../../arm-none-eabi/lib/armv7-m/libc.a(lib_a-wbuf.o)
 .debug_frame   0x00000000000028c4       0x60 /usr/lib/gcc/arm-none-eabi/4.9.3/../../../arm-none-eabi/lib/armv7-m/libc.a(lib_a-wcrtomb.o)
 .debug_frame   0x0000000000002924       0x48 /usr/lib/gcc/arm-none-eabi/4.9.3/../../../arm-none-eabi/lib/armv7-m/libc.a(lib_a-wctomb_r.o)
 .debug_frame   0x000000000000296c       0x44 /usr/lib/gcc/arm-none-eabi/4.9.3/../../../arm-none-eabi/lib/armv7-m/libc.a(lib_a-fclose.o)
 .debug_frame   0x00000000000029b0       0x28 /usr/lib/gcc/arm-none-eabi/4.9.3/armv7-m/libgcc.a(_aeabi_uldivmod.o)
 .debug_frame   0x00000000000029d8       0x54 /usr/lib/gcc/arm-none-eabi/4.9.3/armv7-m/libgcc.a(bpabi.o)
 .debug_frame   0x0000000000002a2c       0x34 /usr/lib/gcc/arm-none-eabi/4.9.3/armv7-m/libgcc.a(_divdi3.o)
 .debug_frame   0x0000000000002a60       0x34 /usr/lib/gcc/arm-none-eabi/4.9.3/armv7-m/libgcc.a(_udivdi3.o)

Cross Reference Table

Symbol                                            File
ADC_CfgChannelMode                                build/obj/atmel_adc.o
ADC_CfgLowRes                                     build/obj/atmel_adc.o
ADC_CfgPowerSave                                  build/obj/atmel_adc.o
ADC_CfgTiming                                     build/obj/atmel_adc.o
ADC_CfgTrigering                                  build/obj/atmel_adc.o
ADC_GetConvertedData                              build/obj/atmel_adc.o
ADC_Initialize                                    build/obj/atmel_adc.o
ADC_IsChannelInterruptStatusSet                   build/obj/atmel_adc.o
ADC_IsInterruptMasked                             build/obj/atmel_adc.o
ADC_IsStatusSet                                   build/obj/atmel_adc.o
ADC_ReadBuffer                                    build/obj/atmel_adc.o
ADC_SetCompareChannel                             build/obj/atmel_adc.o
ADC_SetCompareMode                                build/obj/atmel_adc.o
ADC_SetComparisonWindow                           build/obj/atmel_adc.o
ADC_cfgFrequency                                  build/obj/atmel_adc.o
ADC_check                                         build/obj/atmel_adc.o
BOARD_ConfigurePSRAM                              build/obj/atmel_psram.o
                                                  build/obj/main.o
BusFaultVector                                    build/obj/vectors.o
ConfigurePck                                      build/obj/pmc.o
DebugMonitorVector                                build/obj/vectors.o
HardFaultVector                                   build/obj/vectors.o
LSM9DS1::LSM9DS1(creator::I2C*)                   build/obj/lsm9ds1.o
LSM9DS1::LSM9DS1(creator::I2C*)                   build/obj/lsm9ds1.o
LSM9DS1::LSM9DS1(creator::I2C*, interface_mode, unsigned char, unsigned char) build/obj/lsm9ds1.o
LSM9DS1::LSM9DS1(creator::I2C*, interface_mode, unsigned char, unsigned char) build/obj/lsm9ds1.o
                                                  build/obj/main.o
LSM9DS1::accelAvailable()                         build/obj/lsm9ds1.o
LSM9DS1::begin()                                  build/obj/lsm9ds1.o
                                                  build/obj/main.o
LSM9DS1::calcAccel(short)                         build/obj/lsm9ds1.o
                                                  build/obj/main.o
LSM9DS1::calcGyro(short)                          build/obj/lsm9ds1.o
                                                  build/obj/main.o
LSM9DS1::calcMag(short)                           build/obj/lsm9ds1.o
                                                  build/obj/main.o
LSM9DS1::calcaRes()                               build/obj/lsm9ds1.o
LSM9DS1::calcgRes()                               build/obj/lsm9ds1.o
LSM9DS1::calcmRes()                               build/obj/lsm9ds1.o
LSM9DS1::calibrate(bool)                          build/obj/lsm9ds1.o
LSM9DS1::calibrateMag(bool)                       build/obj/lsm9ds1.o
LSM9DS1::configAccelInt(unsigned char, bool)      build/obj/lsm9ds1.o
LSM9DS1::configAccelThs(unsigned char, lsm9ds1_axis, unsigned char, bool) build/obj/lsm9ds1.o
LSM9DS1::configGyroInt(unsigned char, bool, bool) build/obj/lsm9ds1.o
LSM9DS1::configGyroThs(short, lsm9ds1_axis, unsigned char, bool) build/obj/lsm9ds1.o
LSM9DS1::configInactivity(unsigned char, unsigned char, bool) build/obj/lsm9ds1.o
LSM9DS1::configInt(interrupt_select, unsigned char, h_lactive, pp_od) build/obj/lsm9ds1.o
LSM9DS1::configMagInt(unsigned char, h_lactive, bool) build/obj/lsm9ds1.o
LSM9DS1::configMagThs(unsigned short)             build/obj/lsm9ds1.o
LSM9DS1::constrainScales()                        build/obj/lsm9ds1.o
LSM9DS1::enableFIFO(bool)                         build/obj/lsm9ds1.o
LSM9DS1::getAccelIntSrc()                         build/obj/lsm9ds1.o
LSM9DS1::getFIFOSamples()                         build/obj/lsm9ds1.o
LSM9DS1::getGyroIntSrc()                          build/obj/lsm9ds1.o
LSM9DS1::getInactivity()                          build/obj/lsm9ds1.o
LSM9DS1::getMagIntSrc()                           build/obj/lsm9ds1.o
LSM9DS1::gyroAvailable()                          build/obj/lsm9ds1.o
LSM9DS1::init(interface_mode, unsigned char, unsigned char) build/obj/lsm9ds1.o
LSM9DS1::initAccel()                              build/obj/lsm9ds1.o
LSM9DS1::initGyro()                               build/obj/lsm9ds1.o
LSM9DS1::initMag()                                build/obj/lsm9ds1.o
LSM9DS1::mReadByte(unsigned char)                 build/obj/lsm9ds1.o
LSM9DS1::mReadBytes(unsigned char, unsigned char*, unsigned char) build/obj/lsm9ds1.o
LSM9DS1::mWriteByte(unsigned char, unsigned char) build/obj/lsm9ds1.o
LSM9DS1::magAvailable(lsm9ds1_axis)               build/obj/lsm9ds1.o
LSM9DS1::magOffset(unsigned char, short)          build/obj/lsm9ds1.o
LSM9DS1::readAccel()                              build/obj/lsm9ds1.o
                                                  build/obj/main.o
LSM9DS1::readAccel(lsm9ds1_axis)                  build/obj/lsm9ds1.o
LSM9DS1::readGyro()                               build/obj/lsm9ds1.o
                                                  build/obj/main.o
LSM9DS1::readGyro(lsm9ds1_axis)                   build/obj/lsm9ds1.o
LSM9DS1::readMag()                                build/obj/lsm9ds1.o
                                                  build/obj/main.o
LSM9DS1::readMag(lsm9ds1_axis)                    build/obj/lsm9ds1.o
LSM9DS1::readTemp()                               build/obj/lsm9ds1.o
LSM9DS1::setAccelODR(unsigned char)               build/obj/lsm9ds1.o
LSM9DS1::setAccelScale(unsigned char)             build/obj/lsm9ds1.o
LSM9DS1::setFIFO(fifoMode_type, unsigned char)    build/obj/lsm9ds1.o
LSM9DS1::setGyroODR(unsigned char)                build/obj/lsm9ds1.o
LSM9DS1::setGyroScale(unsigned short)             build/obj/lsm9ds1.o
LSM9DS1::setMagODR(unsigned char)                 build/obj/lsm9ds1.o
LSM9DS1::setMagScale(unsigned char)               build/obj/lsm9ds1.o
LSM9DS1::sleepGyro(bool)                          build/obj/lsm9ds1.o
LSM9DS1::tempAvailable()                          build/obj/lsm9ds1.o
LSM9DS1::xgReadByte(unsigned char)                build/obj/lsm9ds1.o
LSM9DS1::xgReadBytes(unsigned char, unsigned char*, unsigned char) build/obj/lsm9ds1.o
LSM9DS1::xgWriteByte(unsigned char, unsigned char) build/obj/lsm9ds1.o
MemManageVector                                   build/obj/vectors.o
NMIVector                                         build/obj/vectors.o
PIO_Clear                                         build/obj/pio.o
PIO_Configure                                     build/obj/pio.o
                                                  build/obj/main.o
                                                  build/obj/i2c.o
PIO_Get                                           build/obj/pio.o
PIO_GetOutputDataStatus                           build/obj/pio.o
PIO_Set                                           build/obj/pio.o
PIO_SetDebounceFilter                             build/obj/pio.o
PMC_DisableAllPeripherals                         build/obj/pmc.o
PMC_DisablePeripheral                             build/obj/pmc.o
PMC_EnableAllPeripherals                          build/obj/pmc.o
PMC_EnablePeripheral                              build/obj/pmc.o
                                                  build/obj/atmel_psram.o
                                                  build/obj/atmel_spi.o
                                                  build/obj/pio.o
PMC_IsPeriphEnabled                               build/obj/pmc.o
PendSVVector                                      build/obj/vectors.o
PmcConfigurePllClock                              build/obj/pmc.o
PmcMainClockSwitchMainOsc                         build/obj/pmc.o
PmcMasterClockSelection                           build/obj/pmc.o
ResetHandler                                      build/obj/crt0.o
                                                  build/obj/vectors.o
SD1                                               build/obj/serial_lld.o
                                                  build/obj/main.o
SD2                                               build/obj/serial_lld.o
                                                  build/obj/atmel_adc.o
SPI_Configure                                     build/obj/atmel_spi.o
SPI_ConfigureNPCS                                 build/obj/atmel_spi.o
SPI_Disable                                       build/obj/atmel_spi.o
SPI_DisableIt                                     build/obj/atmel_spi.o
SPI_Enable                                        build/obj/atmel_spi.o
SPI_EnableIt                                      build/obj/atmel_spi.o
SPI_GetStatus                                     build/obj/atmel_spi.o
SPI_IsFinished                                    build/obj/atmel_spi.o
SPI_PCS                                           build/obj/atmel_spi.o
SPI_PdcDisableRx                                  build/obj/atmel_spi.o
SPI_PdcDisableTx                                  build/obj/atmel_spi.o
SPI_PdcEnableRx                                   build/obj/atmel_spi.o
SPI_PdcEnableTx                                   build/obj/atmel_spi.o
SPI_PdcSetRx                                      build/obj/atmel_spi.o
SPI_PdcSetTx                                      build/obj/atmel_spi.o
SPI_Read                                          build/obj/atmel_spi.o
SPI_ReadBuffer                                    build/obj/atmel_spi.o
SPI_Write                                         build/obj/atmel_spi.o
SPI_WriteBuffer                                   build/obj/atmel_spi.o
SVCallVector                                      build/obj/chcore_v7m.o
                                                  build/obj/vectors.o
SysTickVector                                     build/obj/chcore_v7m.o
                                                  build/obj/vectors.o
SystemCoreClock                                   build/obj/system_SAM3.o
                                                  build/obj/serial_lld.o
                                                  build/obj/hal_lld.o
SystemCoreClockUpdate                             build/obj/system_SAM3.o
                                                  build/obj/serial_lld.o
                                                  build/obj/hal_lld.o
SystemInit                                        build/obj/system_SAM3.o
                                                  build/obj/hal_lld.o
TWID_Handler                                      build/obj/atmel_twid.o
TWID_Initialize                                   build/obj/atmel_twid.o
                                                  build/obj/i2c.o
TWID_Read                                         build/obj/atmel_twid.o
                                                  build/obj/i2c.o
TWID_Write                                        build/obj/atmel_twid.o
                                                  build/obj/i2c.o
TWI_ByteReceived                                  build/obj/atmel_twi.o
                                                  build/obj/atmel_twid.o
TWI_ByteSent                                      build/obj/atmel_twi.o
                                                  build/obj/atmel_twid.o
TWI_ConfigureMaster                               build/obj/atmel_twi.o
                                                  build/obj/i2c.o
TWI_ConfigureSlave                                build/obj/atmel_twi.o
TWI_DisableIt                                     build/obj/atmel_twi.o
                                                  build/obj/atmel_twid.o
TWI_EnableIt                                      build/obj/atmel_twi.o
                                                  build/obj/atmel_twid.o
TWI_GetMaskedStatus                               build/obj/atmel_twi.o
                                                  build/obj/atmel_twid.o
TWI_GetStatus                                     build/obj/atmel_twi.o
TWI_ReadByte                                      build/obj/atmel_twi.o
                                                  build/obj/atmel_twid.o
TWI_SendSTOPCondition                             build/obj/atmel_twi.o
                                                  build/obj/atmel_twid.o
TWI_StartRead                                     build/obj/atmel_twi.o
                                                  build/obj/atmel_twid.o
TWI_StartWrite                                    build/obj/atmel_twi.o
                                                  build/obj/atmel_twid.o
TWI_Stop                                          build/obj/atmel_twi.o
                                                  build/obj/atmel_twid.o
TWI_TransferComplete                              build/obj/atmel_twi.o
                                                  build/obj/atmel_twid.o
TWI_WriteByte                                     build/obj/atmel_twi.o
                                                  build/obj/atmel_twid.o
TestThread                                        build/obj/test.o
UsageFaultVector                                  build/obj/vectors.o
Vector1C                                          build/obj/vectors.o
Vector20                                          build/obj/vectors.o
Vector24                                          build/obj/vectors.o
Vector28                                          build/obj/vectors.o
Vector34                                          build/obj/vectors.o
Vector40                                          build/obj/vectors.o
Vector44                                          build/obj/vectors.o
Vector48                                          build/obj/vectors.o
Vector4C                                          build/obj/vectors.o
Vector50                                          build/obj/vectors.o
Vector54                                          build/obj/vectors.o
Vector58                                          build/obj/vectors.o
Vector5C                                          build/obj/vectors.o
Vector60                                          build/obj/serial_lld.o
                                                  build/obj/vectors.o
Vector64                                          build/obj/serial_lld.o
                                                  build/obj/vectors.o
Vector68                                          build/obj/vectors.o
Vector6C                                          build/obj/vectors.o
Vector70                                          build/obj/vectors.o
Vector74                                          build/obj/vectors.o
Vector78                                          build/obj/vectors.o
Vector7C                                          build/obj/vectors.o
Vector80                                          build/obj/vectors.o
Vector84                                          build/obj/vectors.o
Vector88                                          build/obj/vectors.o
Vector8C                                          build/obj/vectors.o
Vector90                                          build/obj/vectors.o
Vector94                                          build/obj/vectors.o
Vector98                                          build/obj/vectors.o
Vector9C                                          build/obj/vectors.o
VectorA0                                          build/obj/vectors.o
VectorA4                                          build/obj/vectors.o
VectorA8                                          build/obj/vectors.o
VectorAC                                          build/obj/vectors.o
VectorB0                                          build/obj/vectors.o
VectorB4                                          build/obj/vectors.o
VectorB8                                          build/obj/vectors.o
VectorBC                                          build/obj/vectors.o
VectorC0                                          build/obj/vectors.o
VectorC4                                          build/obj/vectors.o
VectorC8                                          build/obj/vectors.o
VectorCC                                          build/obj/vectors.o
_PathLocale                                       /usr/lib/gcc/arm-none-eabi/4.9.3/../../../arm-none-eabi/lib/armv7-m/libc.a(lib_a-locale.o)
_Unwind_Backtrace                                 /usr/lib/gcc/arm-none-eabi/4.9.3/armv7-m/libgcc.a(libunwind.o)
_Unwind_Complete                                  /usr/lib/gcc/arm-none-eabi/4.9.3/armv7-m/libgcc.a(unwind-arm.o)
_Unwind_DeleteException                           /usr/lib/gcc/arm-none-eabi/4.9.3/armv7-m/libgcc.a(unwind-arm.o)
_Unwind_ForcedUnwind                              /usr/lib/gcc/arm-none-eabi/4.9.3/armv7-m/libgcc.a(libunwind.o)
_Unwind_GetCFA                                    /usr/lib/gcc/arm-none-eabi/4.9.3/armv7-m/libgcc.a(unwind-arm.o)
_Unwind_GetDataRelBase                            /usr/lib/gcc/arm-none-eabi/4.9.3/armv7-m/libgcc.a(pr-support.o)
_Unwind_GetLanguageSpecificData                   /usr/lib/gcc/arm-none-eabi/4.9.3/armv7-m/libgcc.a(pr-support.o)
_Unwind_GetRegionStart                            /usr/lib/gcc/arm-none-eabi/4.9.3/armv7-m/libgcc.a(pr-support.o)
_Unwind_GetTextRelBase                            /usr/lib/gcc/arm-none-eabi/4.9.3/armv7-m/libgcc.a(pr-support.o)
_Unwind_RaiseException                            /usr/lib/gcc/arm-none-eabi/4.9.3/armv7-m/libgcc.a(libunwind.o)
_Unwind_Resume                                    /usr/lib/gcc/arm-none-eabi/4.9.3/armv7-m/libgcc.a(libunwind.o)
_Unwind_Resume_or_Rethrow                         /usr/lib/gcc/arm-none-eabi/4.9.3/armv7-m/libgcc.a(libunwind.o)
_Unwind_VRS_Get                                   /usr/lib/gcc/arm-none-eabi/4.9.3/armv7-m/libgcc.a(unwind-arm.o)
                                                  /usr/lib/gcc/arm-none-eabi/4.9.3/armv7-m/libgcc.a(pr-support.o)
_Unwind_VRS_Pop                                   /usr/lib/gcc/arm-none-eabi/4.9.3/armv7-m/libgcc.a(unwind-arm.o)
                                                  /usr/lib/gcc/arm-none-eabi/4.9.3/armv7-m/libgcc.a(pr-support.o)
_Unwind_VRS_Set                                   /usr/lib/gcc/arm-none-eabi/4.9.3/armv7-m/libgcc.a(unwind-arm.o)
                                                  /usr/lib/gcc/arm-none-eabi/4.9.3/armv7-m/libgcc.a(pr-support.o)
___Unwind_Backtrace                               /usr/lib/gcc/arm-none-eabi/4.9.3/armv7-m/libgcc.a(libunwind.o)
___Unwind_ForcedUnwind                            /usr/lib/gcc/arm-none-eabi/4.9.3/armv7-m/libgcc.a(libunwind.o)
___Unwind_RaiseException                          /usr/lib/gcc/arm-none-eabi/4.9.3/armv7-m/libgcc.a(libunwind.o)
___Unwind_Resume                                  /usr/lib/gcc/arm-none-eabi/4.9.3/armv7-m/libgcc.a(libunwind.o)
___Unwind_Resume_or_Rethrow                       /usr/lib/gcc/arm-none-eabi/4.9.3/armv7-m/libgcc.a(libunwind.o)
__adddf3                                          /usr/lib/gcc/arm-none-eabi/4.9.3/armv7-m/libgcc.a(_arm_addsubdf3.o)
__addsf3                                          /usr/lib/gcc/arm-none-eabi/4.9.3/armv7-m/libgcc.a(_arm_addsubsf3.o)
__aeabi_cdcmpeq                                   /usr/lib/gcc/arm-none-eabi/4.9.3/armv7-m/libgcc.a(_arm_cmpdf2.o)
__aeabi_cdcmple                                   /usr/lib/gcc/arm-none-eabi/4.9.3/armv7-m/libgcc.a(_arm_cmpdf2.o)
__aeabi_cdrcmple                                  /usr/lib/gcc/arm-none-eabi/4.9.3/armv7-m/libgcc.a(_arm_cmpdf2.o)
__aeabi_cfcmpeq                                   /usr/lib/gcc/arm-none-eabi/4.9.3/armv7-m/libgcc.a(_arm_cmpsf2.o)
__aeabi_cfcmple                                   /usr/lib/gcc/arm-none-eabi/4.9.3/armv7-m/libgcc.a(_arm_cmpsf2.o)
__aeabi_cfrcmple                                  /usr/lib/gcc/arm-none-eabi/4.9.3/armv7-m/libgcc.a(_arm_cmpsf2.o)
__aeabi_d2f                                       /usr/lib/gcc/arm-none-eabi/4.9.3/armv7-m/libgcc.a(_arm_truncdfsf2.o)
                                                  build/obj/main.o
                                                  build/obj/hts221.o
__aeabi_d2iz                                      /usr/lib/gcc/arm-none-eabi/4.9.3/armv7-m/libgcc.a(_arm_fixdfsi.o)
                                                  build/obj/lsm9ds1.o
__aeabi_dadd                                      /usr/lib/gcc/arm-none-eabi/4.9.3/armv7-m/libgcc.a(_arm_addsubdf3.o)
                                                  /usr/lib/gcc/arm-none-eabi/4.9.3/../../../arm-none-eabi/lib/armv7-m/libm.a(lib_a-s_atan.o)
                                                  /usr/lib/gcc/arm-none-eabi/4.9.3/../../../arm-none-eabi/lib/armv7-m/libm.a(lib_a-e_sqrt.o)
                                                  /usr/lib/gcc/arm-none-eabi/4.9.3/../../../arm-none-eabi/lib/armv7-m/libm.a(lib_a-e_atan2.o)
                                                  build/obj/hts221.o
__aeabi_dcmpeq                                    /usr/lib/gcc/arm-none-eabi/4.9.3/armv7-m/libgcc.a(_arm_cmpdf2.o)
__aeabi_dcmpge                                    /usr/lib/gcc/arm-none-eabi/4.9.3/armv7-m/libgcc.a(_arm_cmpdf2.o)
__aeabi_dcmpgt                                    /usr/lib/gcc/arm-none-eabi/4.9.3/armv7-m/libgcc.a(_arm_cmpdf2.o)
                                                  /usr/lib/gcc/arm-none-eabi/4.9.3/../../../arm-none-eabi/lib/armv7-m/libm.a(lib_a-s_atan.o)
__aeabi_dcmple                                    /usr/lib/gcc/arm-none-eabi/4.9.3/armv7-m/libgcc.a(_arm_cmpdf2.o)
__aeabi_dcmplt                                    /usr/lib/gcc/arm-none-eabi/4.9.3/armv7-m/libgcc.a(_arm_cmpdf2.o)
                                                  /usr/lib/gcc/arm-none-eabi/4.9.3/../../../arm-none-eabi/lib/armv7-m/libm.a(lib_a-w_sqrt.o)
__aeabi_ddiv                                      /usr/lib/gcc/arm-none-eabi/4.9.3/armv7-m/libgcc.a(_arm_muldivdf3.o)
                                                  /usr/lib/gcc/arm-none-eabi/4.9.3/../../../arm-none-eabi/lib/armv7-m/libm.a(lib_a-s_atan.o)
                                                  /usr/lib/gcc/arm-none-eabi/4.9.3/../../../arm-none-eabi/lib/armv7-m/libm.a(lib_a-e_sqrt.o)
                                                  /usr/lib/gcc/arm-none-eabi/4.9.3/../../../arm-none-eabi/lib/armv7-m/libm.a(lib_a-e_atan2.o)
                                                  /usr/lib/gcc/arm-none-eabi/4.9.3/../../../arm-none-eabi/lib/armv7-m/libm.a(lib_a-w_sqrt.o)
                                                  build/obj/main.o
                                                  build/obj/lsm9ds1.o
                                                  build/obj/hts221.o
__aeabi_dmul                                      /usr/lib/gcc/arm-none-eabi/4.9.3/armv7-m/libgcc.a(_arm_muldivdf3.o)
                                                  /usr/lib/gcc/arm-none-eabi/4.9.3/../../../arm-none-eabi/lib/armv7-m/libm.a(lib_a-s_atan.o)
                                                  /usr/lib/gcc/arm-none-eabi/4.9.3/../../../arm-none-eabi/lib/armv7-m/libm.a(lib_a-e_sqrt.o)
                                                  build/obj/main.o
                                                  build/obj/hts221.o
__aeabi_drsub                                     /usr/lib/gcc/arm-none-eabi/4.9.3/armv7-m/libgcc.a(_arm_addsubdf3.o)
__aeabi_dsub                                      /usr/lib/gcc/arm-none-eabi/4.9.3/armv7-m/libgcc.a(_arm_addsubdf3.o)
                                                  /usr/lib/gcc/arm-none-eabi/4.9.3/../../../arm-none-eabi/lib/armv7-m/libm.a(lib_a-s_atan.o)
                                                  /usr/lib/gcc/arm-none-eabi/4.9.3/../../../arm-none-eabi/lib/armv7-m/libm.a(lib_a-e_sqrt.o)
                                                  /usr/lib/gcc/arm-none-eabi/4.9.3/../../../arm-none-eabi/lib/armv7-m/libm.a(lib_a-e_atan2.o)
                                                  build/obj/hts221.o
__aeabi_f2d                                       /usr/lib/gcc/arm-none-eabi/4.9.3/armv7-m/libgcc.a(_arm_addsubdf3.o)
                                                  build/obj/main.o
                                                  build/obj/lsm9ds1.o
__aeabi_f2iz                                      /usr/lib/gcc/arm-none-eabi/4.9.3/armv7-m/libgcc.a(_arm_fixsfsi.o)
                                                  build/obj/main.o
__aeabi_fadd                                      /usr/lib/gcc/arm-none-eabi/4.9.3/armv7-m/libgcc.a(_arm_addsubsf3.o)
                                                  build/obj/main.o
__aeabi_fcmpeq                                    /usr/lib/gcc/arm-none-eabi/4.9.3/armv7-m/libgcc.a(_arm_cmpsf2.o)
__aeabi_fcmpge                                    /usr/lib/gcc/arm-none-eabi/4.9.3/armv7-m/libgcc.a(_arm_cmpsf2.o)
__aeabi_fcmpgt                                    /usr/lib/gcc/arm-none-eabi/4.9.3/armv7-m/libgcc.a(_arm_cmpsf2.o)
                                                  build/obj/main.o
__aeabi_fcmple                                    /usr/lib/gcc/arm-none-eabi/4.9.3/armv7-m/libgcc.a(_arm_cmpsf2.o)
__aeabi_fcmplt                                    /usr/lib/gcc/arm-none-eabi/4.9.3/armv7-m/libgcc.a(_arm_cmpsf2.o)
                                                  build/obj/main.o
__aeabi_fdiv                                      /usr/lib/gcc/arm-none-eabi/4.9.3/armv7-m/libgcc.a(_arm_muldivsf3.o)
__aeabi_fmul                                      /usr/lib/gcc/arm-none-eabi/4.9.3/armv7-m/libgcc.a(_arm_muldivsf3.o)
                                                  build/obj/main.o
                                                  build/obj/veml6070.o
                                                  build/obj/mpl3115a2.o
                                                  build/obj/lsm9ds1.o
__aeabi_frsub                                     /usr/lib/gcc/arm-none-eabi/4.9.3/armv7-m/libgcc.a(_arm_addsubsf3.o)
__aeabi_fsub                                      /usr/lib/gcc/arm-none-eabi/4.9.3/armv7-m/libgcc.a(_arm_addsubsf3.o)
                                                  build/obj/main.o
__aeabi_i2d                                       /usr/lib/gcc/arm-none-eabi/4.9.3/armv7-m/libgcc.a(_arm_addsubdf3.o)
                                                  build/obj/hts221.o
__aeabi_i2f                                       /usr/lib/gcc/arm-none-eabi/4.9.3/armv7-m/libgcc.a(_arm_addsubsf3.o)
                                                  build/obj/main.o
                                                  build/obj/veml6070.o
                                                  build/obj/mpl3115a2.o
                                                  build/obj/lsm9ds1.o
__aeabi_idiv0                                     /usr/lib/gcc/arm-none-eabi/4.9.3/armv7-m/libgcc.a(_dvmd_tls.o)
__aeabi_l2d                                       /usr/lib/gcc/arm-none-eabi/4.9.3/armv7-m/libgcc.a(_arm_addsubdf3.o)
__aeabi_l2f                                       /usr/lib/gcc/arm-none-eabi/4.9.3/armv7-m/libgcc.a(_arm_addsubsf3.o)
__aeabi_ldiv0                                     /usr/lib/gcc/arm-none-eabi/4.9.3/armv7-m/libgcc.a(_dvmd_tls.o)
                                                  /usr/lib/gcc/arm-none-eabi/4.9.3/armv7-m/libgcc.a(_aeabi_uldivmod.o)
__aeabi_ui2d                                      /usr/lib/gcc/arm-none-eabi/4.9.3/armv7-m/libgcc.a(_arm_addsubdf3.o)
__aeabi_ui2f                                      /usr/lib/gcc/arm-none-eabi/4.9.3/armv7-m/libgcc.a(_arm_addsubsf3.o)
                                                  build/obj/mpl3115a2.o
                                                  build/obj/lsm9ds1.o
__aeabi_ul2d                                      /usr/lib/gcc/arm-none-eabi/4.9.3/armv7-m/libgcc.a(_arm_addsubdf3.o)
__aeabi_ul2f                                      /usr/lib/gcc/arm-none-eabi/4.9.3/armv7-m/libgcc.a(_arm_addsubsf3.o)
__aeabi_uldivmod                                  /usr/lib/gcc/arm-none-eabi/4.9.3/armv7-m/libgcc.a(_aeabi_uldivmod.o)
                                                  /usr/lib/gcc/arm-none-eabi/4.9.3/../../../arm-none-eabi/lib/armv7-m/libc.a(lib_a-vfiprintf.o)
__aeabi_unwind_cpp_pr0                            /usr/lib/gcc/arm-none-eabi/4.9.3/armv7-m/libgcc.a(unwind-arm.o)
                                                  /usr/lib/gcc/arm-none-eabi/4.9.3/armv7-m/libgcc.a(pr-support.o)
                                                  build/obj/main.o
                                                  build/obj/veml6070.o
                                                  build/obj/mpl3115a2.o
                                                  build/obj/lsm9ds1.o
                                                  build/obj/hts221.o
                                                  build/obj/i2c.o
__aeabi_unwind_cpp_pr1                            /usr/lib/gcc/arm-none-eabi/4.9.3/armv7-m/libgcc.a(unwind-arm.o)
                                                  /usr/lib/gcc/arm-none-eabi/4.9.3/armv7-m/libgcc.a(pr-support.o)
                                                  build/obj/veml6070.o
                                                  build/obj/lsm9ds1.o
__aeabi_unwind_cpp_pr2                            /usr/lib/gcc/arm-none-eabi/4.9.3/armv7-m/libgcc.a(unwind-arm.o)
__ascii_wctomb                                    /usr/lib/gcc/arm-none-eabi/4.9.3/../../../arm-none-eabi/lib/armv7-m/libc.a(lib_a-wctomb_r.o)
__assert                                          /usr/lib/gcc/arm-none-eabi/4.9.3/../../../arm-none-eabi/lib/armv7-m/libc.a(lib_a-assert.o)
__assert_func                                     /usr/lib/gcc/arm-none-eabi/4.9.3/../../../arm-none-eabi/lib/armv7-m/libc.a(lib_a-assert.o)
                                                  build/obj/atmel_twid.o
                                                  build/obj/atmel_twi.o
                                                  build/obj/pmc.o
                                                  build/obj/atmel_adc.o
__cmpdf2                                          /usr/lib/gcc/arm-none-eabi/4.9.3/armv7-m/libgcc.a(_arm_cmpdf2.o)
__cmpsf2                                          /usr/lib/gcc/arm-none-eabi/4.9.3/armv7-m/libgcc.a(_arm_cmpsf2.o)
__cxa_begin_cleanup                               /usr/lib/gcc/arm-none-eabi/4.9.3/armv7-m/libgcc.a(unwind-arm.o)
__cxa_call_unexpected                             /usr/lib/gcc/arm-none-eabi/4.9.3/armv7-m/libgcc.a(unwind-arm.o)
__cxa_type_match                                  /usr/lib/gcc/arm-none-eabi/4.9.3/armv7-m/libgcc.a(unwind-arm.o)
__divdf3                                          /usr/lib/gcc/arm-none-eabi/4.9.3/armv7-m/libgcc.a(_arm_muldivdf3.o)
__divdi3                                          /usr/lib/gcc/arm-none-eabi/4.9.3/armv7-m/libgcc.a(_divdi3.o)
                                                  /usr/lib/gcc/arm-none-eabi/4.9.3/armv7-m/libgcc.a(bpabi.o)
__divsf3                                          /usr/lib/gcc/arm-none-eabi/4.9.3/armv7-m/libgcc.a(_arm_muldivsf3.o)
__early_init                                      build/obj/board.o
                                                  build/obj/crt0.o
__eqdf2                                           /usr/lib/gcc/arm-none-eabi/4.9.3/armv7-m/libgcc.a(_arm_cmpdf2.o)
__eqsf2                                           /usr/lib/gcc/arm-none-eabi/4.9.3/armv7-m/libgcc.a(_arm_cmpsf2.o)
__errno                                           /usr/lib/gcc/arm-none-eabi/4.9.3/../../../arm-none-eabi/lib/armv7-m/libc.a(lib_a-errno.o)
                                                  /usr/lib/gcc/arm-none-eabi/4.9.3/../../../arm-none-eabi/lib/armv7-m/libm.a(lib_a-w_sqrt.o)
__exidx_end                                       /usr/lib/gcc/arm-none-eabi/4.9.3/armv7-m/libgcc.a(unwind-arm.o)
__exidx_start                                     /usr/lib/gcc/arm-none-eabi/4.9.3/armv7-m/libgcc.a(unwind-arm.o)
__extendsfdf2                                     /usr/lib/gcc/arm-none-eabi/4.9.3/armv7-m/libgcc.a(_arm_addsubdf3.o)
__fdlib_version                                   /usr/lib/gcc/arm-none-eabi/4.9.3/../../../arm-none-eabi/lib/armv7-m/libm.a(lib_a-s_lib_ver.o)
                                                  /usr/lib/gcc/arm-none-eabi/4.9.3/../../../arm-none-eabi/lib/armv7-m/libm.a(lib_a-w_sqrt.o)
__fini_array_end                                  build/obj/crt0.o
__fini_array_start                                build/obj/crt0.o
__fixdfsi                                         /usr/lib/gcc/arm-none-eabi/4.9.3/armv7-m/libgcc.a(_arm_fixdfsi.o)
__fixsfsi                                         /usr/lib/gcc/arm-none-eabi/4.9.3/armv7-m/libgcc.a(_arm_fixsfsi.o)
__floatdidf                                       /usr/lib/gcc/arm-none-eabi/4.9.3/armv7-m/libgcc.a(_arm_addsubdf3.o)
__floatdisf                                       /usr/lib/gcc/arm-none-eabi/4.9.3/armv7-m/libgcc.a(_arm_addsubsf3.o)
__floatsidf                                       /usr/lib/gcc/arm-none-eabi/4.9.3/armv7-m/libgcc.a(_arm_addsubdf3.o)
__floatsisf                                       /usr/lib/gcc/arm-none-eabi/4.9.3/armv7-m/libgcc.a(_arm_addsubsf3.o)
__floatundidf                                     /usr/lib/gcc/arm-none-eabi/4.9.3/armv7-m/libgcc.a(_arm_addsubdf3.o)
__floatundisf                                     /usr/lib/gcc/arm-none-eabi/4.9.3/armv7-m/libgcc.a(_arm_addsubsf3.o)
__floatunsidf                                     /usr/lib/gcc/arm-none-eabi/4.9.3/armv7-m/libgcc.a(_arm_addsubdf3.o)
__floatunsisf                                     /usr/lib/gcc/arm-none-eabi/4.9.3/armv7-m/libgcc.a(_arm_addsubsf3.o)
__fp_lock_all                                     /usr/lib/gcc/arm-none-eabi/4.9.3/../../../arm-none-eabi/lib/armv7-m/libc.a(lib_a-findfp.o)
__fp_unlock_all                                   /usr/lib/gcc/arm-none-eabi/4.9.3/../../../arm-none-eabi/lib/armv7-m/libc.a(lib_a-findfp.o)
__fpclassifyd                                     /usr/lib/gcc/arm-none-eabi/4.9.3/../../../arm-none-eabi/lib/armv7-m/libm.a(lib_a-s_fpclassify.o)
                                                  /usr/lib/gcc/arm-none-eabi/4.9.3/../../../arm-none-eabi/lib/armv7-m/libm.a(lib_a-w_sqrt.o)
__fputwc                                          /usr/lib/gcc/arm-none-eabi/4.9.3/../../../arm-none-eabi/lib/armv7-m/libc.a(lib_a-fputwc.o)
__gedf2                                           /usr/lib/gcc/arm-none-eabi/4.9.3/armv7-m/libgcc.a(_arm_cmpdf2.o)
__gesf2                                           /usr/lib/gcc/arm-none-eabi/4.9.3/armv7-m/libgcc.a(_arm_cmpsf2.o)
__gnu_Unwind_Backtrace                            /usr/lib/gcc/arm-none-eabi/4.9.3/armv7-m/libgcc.a(unwind-arm.o)
                                                  /usr/lib/gcc/arm-none-eabi/4.9.3/armv7-m/libgcc.a(libunwind.o)
__gnu_Unwind_Find_exidx                           /usr/lib/gcc/arm-none-eabi/4.9.3/armv7-m/libgcc.a(unwind-arm.o)
__gnu_Unwind_ForcedUnwind                         /usr/lib/gcc/arm-none-eabi/4.9.3/armv7-m/libgcc.a(unwind-arm.o)
                                                  /usr/lib/gcc/arm-none-eabi/4.9.3/armv7-m/libgcc.a(libunwind.o)
__gnu_Unwind_RaiseException                       /usr/lib/gcc/arm-none-eabi/4.9.3/armv7-m/libgcc.a(unwind-arm.o)
                                                  /usr/lib/gcc/arm-none-eabi/4.9.3/armv7-m/libgcc.a(libunwind.o)
__gnu_Unwind_Restore_VFP                          /usr/lib/gcc/arm-none-eabi/4.9.3/armv7-m/libgcc.a(libunwind.o)
                                                  /usr/lib/gcc/arm-none-eabi/4.9.3/armv7-m/libgcc.a(unwind-arm.o)
__gnu_Unwind_Restore_VFP_D                        /usr/lib/gcc/arm-none-eabi/4.9.3/armv7-m/libgcc.a(libunwind.o)
                                                  /usr/lib/gcc/arm-none-eabi/4.9.3/armv7-m/libgcc.a(unwind-arm.o)
__gnu_Unwind_Restore_VFP_D_16_to_31               /usr/lib/gcc/arm-none-eabi/4.9.3/armv7-m/libgcc.a(libunwind.o)
                                                  /usr/lib/gcc/arm-none-eabi/4.9.3/armv7-m/libgcc.a(unwind-arm.o)
__gnu_Unwind_Restore_WMMXC                        /usr/lib/gcc/arm-none-eabi/4.9.3/armv7-m/libgcc.a(libunwind.o)
                                                  /usr/lib/gcc/arm-none-eabi/4.9.3/armv7-m/libgcc.a(unwind-arm.o)
__gnu_Unwind_Restore_WMMXD                        /usr/lib/gcc/arm-none-eabi/4.9.3/armv7-m/libgcc.a(libunwind.o)
                                                  /usr/lib/gcc/arm-none-eabi/4.9.3/armv7-m/libgcc.a(unwind-arm.o)
__gnu_Unwind_Resume                               /usr/lib/gcc/arm-none-eabi/4.9.3/armv7-m/libgcc.a(unwind-arm.o)
                                                  /usr/lib/gcc/arm-none-eabi/4.9.3/armv7-m/libgcc.a(libunwind.o)
__gnu_Unwind_Resume_or_Rethrow                    /usr/lib/gcc/arm-none-eabi/4.9.3/armv7-m/libgcc.a(unwind-arm.o)
                                                  /usr/lib/gcc/arm-none-eabi/4.9.3/armv7-m/libgcc.a(libunwind.o)
__gnu_Unwind_Save_VFP                             /usr/lib/gcc/arm-none-eabi/4.9.3/armv7-m/libgcc.a(libunwind.o)
                                                  /usr/lib/gcc/arm-none-eabi/4.9.3/armv7-m/libgcc.a(unwind-arm.o)
__gnu_Unwind_Save_VFP_D                           /usr/lib/gcc/arm-none-eabi/4.9.3/armv7-m/libgcc.a(libunwind.o)
                                                  /usr/lib/gcc/arm-none-eabi/4.9.3/armv7-m/libgcc.a(unwind-arm.o)
__gnu_Unwind_Save_VFP_D_16_to_31                  /usr/lib/gcc/arm-none-eabi/4.9.3/armv7-m/libgcc.a(libunwind.o)
                                                  /usr/lib/gcc/arm-none-eabi/4.9.3/armv7-m/libgcc.a(unwind-arm.o)
__gnu_Unwind_Save_WMMXC                           /usr/lib/gcc/arm-none-eabi/4.9.3/armv7-m/libgcc.a(libunwind.o)
                                                  /usr/lib/gcc/arm-none-eabi/4.9.3/armv7-m/libgcc.a(unwind-arm.o)
__gnu_Unwind_Save_WMMXD                           /usr/lib/gcc/arm-none-eabi/4.9.3/armv7-m/libgcc.a(libunwind.o)
                                                  /usr/lib/gcc/arm-none-eabi/4.9.3/armv7-m/libgcc.a(unwind-arm.o)
__gnu_ldivmod_helper                              /usr/lib/gcc/arm-none-eabi/4.9.3/armv7-m/libgcc.a(bpabi.o)
__gnu_uldivmod_helper                             /usr/lib/gcc/arm-none-eabi/4.9.3/armv7-m/libgcc.a(bpabi.o)
                                                  /usr/lib/gcc/arm-none-eabi/4.9.3/armv7-m/libgcc.a(_aeabi_uldivmod.o)
__gnu_unwind_execute                              /usr/lib/gcc/arm-none-eabi/4.9.3/armv7-m/libgcc.a(pr-support.o)
                                                  /usr/lib/gcc/arm-none-eabi/4.9.3/armv7-m/libgcc.a(unwind-arm.o)
__gnu_unwind_frame                                /usr/lib/gcc/arm-none-eabi/4.9.3/armv7-m/libgcc.a(pr-support.o)
__gtdf2                                           /usr/lib/gcc/arm-none-eabi/4.9.3/armv7-m/libgcc.a(_arm_cmpdf2.o)
__gtsf2                                           /usr/lib/gcc/arm-none-eabi/4.9.3/armv7-m/libgcc.a(_arm_cmpsf2.o)
__heap_base__                                     build/obj/chmemcore.o
__heap_end__                                      build/obj/chmemcore.o
__ieee754_atan2                                   /usr/lib/gcc/arm-none-eabi/4.9.3/../../../arm-none-eabi/lib/armv7-m/libm.a(lib_a-e_atan2.o)
                                                  /usr/lib/gcc/arm-none-eabi/4.9.3/../../../arm-none-eabi/lib/armv7-m/libm.a(lib_a-w_atan2.o)
__ieee754_sqrt                                    /usr/lib/gcc/arm-none-eabi/4.9.3/../../../arm-none-eabi/lib/armv7-m/libm.a(lib_a-e_sqrt.o)
                                                  /usr/lib/gcc/arm-none-eabi/4.9.3/../../../arm-none-eabi/lib/armv7-m/libm.a(lib_a-w_sqrt.o)
__init_array_end                                  build/obj/crt0.o
__init_array_start                                build/obj/crt0.o
__late_init                                       build/obj/crt0.o
__ledf2                                           /usr/lib/gcc/arm-none-eabi/4.9.3/armv7-m/libgcc.a(_arm_cmpdf2.o)
__lesf2                                           /usr/lib/gcc/arm-none-eabi/4.9.3/armv7-m/libgcc.a(_arm_cmpsf2.o)
__locale_charset                                  /usr/lib/gcc/arm-none-eabi/4.9.3/../../../arm-none-eabi/lib/armv7-m/libc.a(lib_a-locale.o)
                                                  /usr/lib/gcc/arm-none-eabi/4.9.3/../../../arm-none-eabi/lib/armv7-m/libc.a(lib_a-wctomb_r.o)
                                                  /usr/lib/gcc/arm-none-eabi/4.9.3/../../../arm-none-eabi/lib/armv7-m/libc.a(lib_a-wcrtomb.o)
__locale_cjk_lang                                 /usr/lib/gcc/arm-none-eabi/4.9.3/../../../arm-none-eabi/lib/armv7-m/libc.a(lib_a-locale.o)
__locale_mb_cur_max                               /usr/lib/gcc/arm-none-eabi/4.9.3/../../../arm-none-eabi/lib/armv7-m/libc.a(lib_a-locale.o)
                                                  /usr/lib/gcc/arm-none-eabi/4.9.3/../../../arm-none-eabi/lib/armv7-m/libc.a(lib_a-fputwc.o)
__locale_msgcharset                               /usr/lib/gcc/arm-none-eabi/4.9.3/../../../arm-none-eabi/lib/armv7-m/libc.a(lib_a-locale.o)
__ltdf2                                           /usr/lib/gcc/arm-none-eabi/4.9.3/armv7-m/libgcc.a(_arm_cmpdf2.o)
__ltsf2                                           /usr/lib/gcc/arm-none-eabi/4.9.3/armv7-m/libgcc.a(_arm_cmpsf2.o)
__main_stack_base__                               build/obj/crt0.o
__main_stack_end__                                build/obj/crt0.o
__malloc_av_                                      /usr/lib/gcc/arm-none-eabi/4.9.3/../../../arm-none-eabi/lib/armv7-m/libc.a(lib_a-mallocr.o)
                                                  /usr/lib/gcc/arm-none-eabi/4.9.3/../../../arm-none-eabi/lib/armv7-m/libc.a(lib_a-reallocr.o)
                                                  /usr/lib/gcc/arm-none-eabi/4.9.3/../../../arm-none-eabi/lib/armv7-m/libc.a(lib_a-freer.o)
__malloc_current_mallinfo                         /usr/lib/gcc/arm-none-eabi/4.9.3/../../../arm-none-eabi/lib/armv7-m/libc.a(lib_a-mallocr.o)
                                                  /usr/lib/gcc/arm-none-eabi/4.9.3/../../../arm-none-eabi/lib/armv7-m/libc.a(lib_a-freer.o)
__malloc_lock                                     /usr/lib/gcc/arm-none-eabi/4.9.3/../../../arm-none-eabi/lib/armv7-m/libc.a(lib_a-mlock.o)
                                                  /usr/lib/gcc/arm-none-eabi/4.9.3/../../../arm-none-eabi/lib/armv7-m/libc.a(lib_a-reallocr.o)
                                                  /usr/lib/gcc/arm-none-eabi/4.9.3/../../../arm-none-eabi/lib/armv7-m/libc.a(lib_a-mallocr.o)
                                                  /usr/lib/gcc/arm-none-eabi/4.9.3/../../../arm-none-eabi/lib/armv7-m/libc.a(lib_a-freer.o)
__malloc_max_sbrked_mem                           /usr/lib/gcc/arm-none-eabi/4.9.3/../../../arm-none-eabi/lib/armv7-m/libc.a(lib_a-mallocr.o)
__malloc_max_total_mem                            /usr/lib/gcc/arm-none-eabi/4.9.3/../../../arm-none-eabi/lib/armv7-m/libc.a(lib_a-mallocr.o)
__malloc_sbrk_base                                /usr/lib/gcc/arm-none-eabi/4.9.3/../../../arm-none-eabi/lib/armv7-m/libc.a(lib_a-mallocr.o)
                                                  /usr/lib/gcc/arm-none-eabi/4.9.3/../../../arm-none-eabi/lib/armv7-m/libc.a(lib_a-freer.o)
__malloc_top_pad                                  /usr/lib/gcc/arm-none-eabi/4.9.3/../../../arm-none-eabi/lib/armv7-m/libc.a(lib_a-mallocr.o)
                                                  /usr/lib/gcc/arm-none-eabi/4.9.3/../../../arm-none-eabi/lib/armv7-m/libc.a(lib_a-freer.o)
__malloc_trim_threshold                           /usr/lib/gcc/arm-none-eabi/4.9.3/../../../arm-none-eabi/lib/armv7-m/libc.a(lib_a-mallocr.o)
                                                  /usr/lib/gcc/arm-none-eabi/4.9.3/../../../arm-none-eabi/lib/armv7-m/libc.a(lib_a-freer.o)
__malloc_unlock                                   /usr/lib/gcc/arm-none-eabi/4.9.3/../../../arm-none-eabi/lib/armv7-m/libc.a(lib_a-mlock.o)
                                                  /usr/lib/gcc/arm-none-eabi/4.9.3/../../../arm-none-eabi/lib/armv7-m/libc.a(lib_a-reallocr.o)
                                                  /usr/lib/gcc/arm-none-eabi/4.9.3/../../../arm-none-eabi/lib/armv7-m/libc.a(lib_a-mallocr.o)
                                                  /usr/lib/gcc/arm-none-eabi/4.9.3/../../../arm-none-eabi/lib/armv7-m/libc.a(lib_a-freer.o)
__mb_cur_max                                      /usr/lib/gcc/arm-none-eabi/4.9.3/../../../arm-none-eabi/lib/armv7-m/libc.a(lib_a-locale.o)
__mlocale_changed                                 /usr/lib/gcc/arm-none-eabi/4.9.3/../../../arm-none-eabi/lib/armv7-m/libc.a(lib_a-locale.o)
__muldf3                                          /usr/lib/gcc/arm-none-eabi/4.9.3/armv7-m/libgcc.a(_arm_muldivdf3.o)
__mulsf3                                          /usr/lib/gcc/arm-none-eabi/4.9.3/armv7-m/libgcc.a(_arm_muldivsf3.o)
__nedf2                                           /usr/lib/gcc/arm-none-eabi/4.9.3/armv7-m/libgcc.a(_arm_cmpdf2.o)
__nesf2                                           /usr/lib/gcc/arm-none-eabi/4.9.3/armv7-m/libgcc.a(_arm_cmpsf2.o)
__nlocale_changed                                 /usr/lib/gcc/arm-none-eabi/4.9.3/../../../arm-none-eabi/lib/armv7-m/libc.a(lib_a-locale.o)
__process_stack_base__                            build/obj/crt0.o
__process_stack_end__                             build/obj/crt0.o
__ram_end__                                       build/obj/vectors.o
__restore_core_regs                               /usr/lib/gcc/arm-none-eabi/4.9.3/armv7-m/libgcc.a(libunwind.o)
__sclose                                          /usr/lib/gcc/arm-none-eabi/4.9.3/../../../arm-none-eabi/lib/armv7-m/libc.a(lib_a-stdio.o)
                                                  /usr/lib/gcc/arm-none-eabi/4.9.3/../../../arm-none-eabi/lib/armv7-m/libc.a(lib_a-findfp.o)
__seofread                                        /usr/lib/gcc/arm-none-eabi/4.9.3/../../../arm-none-eabi/lib/armv7-m/libc.a(lib_a-stdio.o)
__sflush_r                                        /usr/lib/gcc/arm-none-eabi/4.9.3/../../../arm-none-eabi/lib/armv7-m/libc.a(lib_a-fflush.o)
                                                  /usr/lib/gcc/arm-none-eabi/4.9.3/../../../arm-none-eabi/lib/armv7-m/libc.a(lib_a-fclose.o)
__sfmoreglue                                      /usr/lib/gcc/arm-none-eabi/4.9.3/../../../arm-none-eabi/lib/armv7-m/libc.a(lib_a-findfp.o)
__sfp                                             /usr/lib/gcc/arm-none-eabi/4.9.3/../../../arm-none-eabi/lib/armv7-m/libc.a(lib_a-findfp.o)
__sfp_lock_acquire                                /usr/lib/gcc/arm-none-eabi/4.9.3/../../../arm-none-eabi/lib/armv7-m/libc.a(lib_a-findfp.o)
                                                  /usr/lib/gcc/arm-none-eabi/4.9.3/../../../arm-none-eabi/lib/armv7-m/libc.a(lib_a-fclose.o)
__sfp_lock_release                                /usr/lib/gcc/arm-none-eabi/4.9.3/../../../arm-none-eabi/lib/armv7-m/libc.a(lib_a-findfp.o)
                                                  /usr/lib/gcc/arm-none-eabi/4.9.3/../../../arm-none-eabi/lib/armv7-m/libc.a(lib_a-fclose.o)
__sfvwrite_r                                      /usr/lib/gcc/arm-none-eabi/4.9.3/../../../arm-none-eabi/lib/armv7-m/libc.a(lib_a-fvwrite.o)
                                                  /usr/lib/gcc/arm-none-eabi/4.9.3/../../../arm-none-eabi/lib/armv7-m/libc.a(lib_a-vfiprintf.o)
__sigtramp                                        /usr/lib/gcc/arm-none-eabi/4.9.3/../../../arm-none-eabi/lib/armv7-m/libc.a(lib_a-signal.o)
__sigtramp_r                                      /usr/lib/gcc/arm-none-eabi/4.9.3/../../../arm-none-eabi/lib/armv7-m/libc.a(lib_a-signal.o)
__sinit                                           /usr/lib/gcc/arm-none-eabi/4.9.3/../../../arm-none-eabi/lib/armv7-m/libc.a(lib_a-findfp.o)
                                                  /usr/lib/gcc/arm-none-eabi/4.9.3/../../../arm-none-eabi/lib/armv7-m/libc.a(lib_a-fclose.o)
                                                  /usr/lib/gcc/arm-none-eabi/4.9.3/../../../arm-none-eabi/lib/armv7-m/libc.a(lib_a-wbuf.o)
                                                  /usr/lib/gcc/arm-none-eabi/4.9.3/../../../arm-none-eabi/lib/armv7-m/libc.a(lib_a-fputwc.o)
                                                  /usr/lib/gcc/arm-none-eabi/4.9.3/../../../arm-none-eabi/lib/armv7-m/libc.a(lib_a-fflush.o)
                                                  /usr/lib/gcc/arm-none-eabi/4.9.3/../../../arm-none-eabi/lib/armv7-m/libc.a(lib_a-wsetup.o)
                                                  /usr/lib/gcc/arm-none-eabi/4.9.3/../../../arm-none-eabi/lib/armv7-m/libc.a(lib_a-vfiprintf.o)
__sinit_lock_acquire                              /usr/lib/gcc/arm-none-eabi/4.9.3/../../../arm-none-eabi/lib/armv7-m/libc.a(lib_a-findfp.o)
__sinit_lock_release                              /usr/lib/gcc/arm-none-eabi/4.9.3/../../../arm-none-eabi/lib/armv7-m/libc.a(lib_a-findfp.o)
__smakebuf_r                                      /usr/lib/gcc/arm-none-eabi/4.9.3/../../../arm-none-eabi/lib/armv7-m/libc.a(lib_a-makebuf.o)
                                                  /usr/lib/gcc/arm-none-eabi/4.9.3/../../../arm-none-eabi/lib/armv7-m/libc.a(lib_a-wsetup.o)
__sprint_r                                        /usr/lib/gcc/arm-none-eabi/4.9.3/../../../arm-none-eabi/lib/armv7-m/libc.a(lib_a-vfiprintf.o)
__sread                                           /usr/lib/gcc/arm-none-eabi/4.9.3/../../../arm-none-eabi/lib/armv7-m/libc.a(lib_a-stdio.o)
                                                  /usr/lib/gcc/arm-none-eabi/4.9.3/../../../arm-none-eabi/lib/armv7-m/libc.a(lib_a-findfp.o)
__sseek                                           /usr/lib/gcc/arm-none-eabi/4.9.3/../../../arm-none-eabi/lib/armv7-m/libc.a(lib_a-stdio.o)
                                                  /usr/lib/gcc/arm-none-eabi/4.9.3/../../../arm-none-eabi/lib/armv7-m/libc.a(lib_a-makebuf.o)
                                                  /usr/lib/gcc/arm-none-eabi/4.9.3/../../../arm-none-eabi/lib/armv7-m/libc.a(lib_a-findfp.o)
__subdf3                                          /usr/lib/gcc/arm-none-eabi/4.9.3/armv7-m/libgcc.a(_arm_addsubdf3.o)
__subsf3                                          /usr/lib/gcc/arm-none-eabi/4.9.3/armv7-m/libgcc.a(_arm_addsubsf3.o)
__swbuf                                           /usr/lib/gcc/arm-none-eabi/4.9.3/../../../arm-none-eabi/lib/armv7-m/libc.a(lib_a-wbuf.o)
__swbuf_r                                         /usr/lib/gcc/arm-none-eabi/4.9.3/../../../arm-none-eabi/lib/armv7-m/libc.a(lib_a-wbuf.o)
                                                  /usr/lib/gcc/arm-none-eabi/4.9.3/../../../arm-none-eabi/lib/armv7-m/libc.a(lib_a-fputwc.o)
__swrite                                          /usr/lib/gcc/arm-none-eabi/4.9.3/../../../arm-none-eabi/lib/armv7-m/libc.a(lib_a-stdio.o)
                                                  /usr/lib/gcc/arm-none-eabi/4.9.3/../../../arm-none-eabi/lib/armv7-m/libc.a(lib_a-findfp.o)
__swsetup_r                                       /usr/lib/gcc/arm-none-eabi/4.9.3/../../../arm-none-eabi/lib/armv7-m/libc.a(lib_a-wsetup.o)
                                                  /usr/lib/gcc/arm-none-eabi/4.9.3/../../../arm-none-eabi/lib/armv7-m/libc.a(lib_a-wbuf.o)
                                                  /usr/lib/gcc/arm-none-eabi/4.9.3/../../../arm-none-eabi/lib/armv7-m/libc.a(lib_a-fvwrite.o)
                                                  /usr/lib/gcc/arm-none-eabi/4.9.3/../../../arm-none-eabi/lib/armv7-m/libc.a(lib_a-vfiprintf.o)
__truncdfsf2                                      /usr/lib/gcc/arm-none-eabi/4.9.3/armv7-m/libgcc.a(_arm_truncdfsf2.o)
__udivdi3                                         /usr/lib/gcc/arm-none-eabi/4.9.3/armv7-m/libgcc.a(_udivdi3.o)
                                                  /usr/lib/gcc/arm-none-eabi/4.9.3/armv7-m/libgcc.a(bpabi.o)
__wctomb                                          /usr/lib/gcc/arm-none-eabi/4.9.3/../../../arm-none-eabi/lib/armv7-m/libc.a(lib_a-wctomb_r.o)
                                                  /usr/lib/gcc/arm-none-eabi/4.9.3/../../../arm-none-eabi/lib/armv7-m/libc.a(lib_a-wcrtomb.o)
_bss_end                                          build/obj/crt0.o
_bss_start                                        build/obj/crt0.o
_cleanup                                          /usr/lib/gcc/arm-none-eabi/4.9.3/../../../arm-none-eabi/lib/armv7-m/libc.a(lib_a-findfp.o)
_cleanup_r                                        /usr/lib/gcc/arm-none-eabi/4.9.3/../../../arm-none-eabi/lib/armv7-m/libc.a(lib_a-findfp.o)
                                                  /usr/lib/gcc/arm-none-eabi/4.9.3/../../../arm-none-eabi/lib/armv7-m/libc.a(lib_a-makebuf.o)
_close_r                                          build/obj/syscalls.o
                                                  /usr/lib/gcc/arm-none-eabi/4.9.3/../../../arm-none-eabi/lib/armv7-m/libc.a(lib_a-stdio.o)
_core_init                                        build/obj/chmemcore.o
                                                  build/obj/chsys.o
_data                                             build/obj/crt0.o
_default_exit                                     build/obj/crt0.o
_edata                                            build/obj/crt0.o
_exit                                             build/obj/syscalls.o
                                                  /usr/lib/gcc/arm-none-eabi/4.9.3/../../../arm-none-eabi/lib/armv7-m/libc.a(lib_a-abort.o)
_fclose_r                                         /usr/lib/gcc/arm-none-eabi/4.9.3/../../../arm-none-eabi/lib/armv7-m/libc.a(lib_a-fclose.o)
                                                  /usr/lib/gcc/arm-none-eabi/4.9.3/../../../arm-none-eabi/lib/armv7-m/libc.a(lib_a-findfp.o)
_fflush_r                                         /usr/lib/gcc/arm-none-eabi/4.9.3/../../../arm-none-eabi/lib/armv7-m/libc.a(lib_a-fflush.o)
                                                  /usr/lib/gcc/arm-none-eabi/4.9.3/../../../arm-none-eabi/lib/armv7-m/libc.a(lib_a-wbuf.o)
                                                  /usr/lib/gcc/arm-none-eabi/4.9.3/../../../arm-none-eabi/lib/armv7-m/libc.a(lib_a-fvwrite.o)
                                                  /usr/lib/gcc/arm-none-eabi/4.9.3/../../../arm-none-eabi/lib/armv7-m/libc.a(lib_a-vfiprintf.o)
_fiprintf_r                                       /usr/lib/gcc/arm-none-eabi/4.9.3/../../../arm-none-eabi/lib/armv7-m/libc.a(lib_a-fiprintf.o)
_fputwc_r                                         /usr/lib/gcc/arm-none-eabi/4.9.3/../../../arm-none-eabi/lib/armv7-m/libc.a(lib_a-fputwc.o)
                                                  /usr/lib/gcc/arm-none-eabi/4.9.3/../../../arm-none-eabi/lib/armv7-m/libc.a(lib_a-vfiprintf.o)
_free_r                                           /usr/lib/gcc/arm-none-eabi/4.9.3/../../../arm-none-eabi/lib/armv7-m/libc.a(lib_a-freer.o)
                                                  /usr/lib/gcc/arm-none-eabi/4.9.3/../../../arm-none-eabi/lib/armv7-m/libc.a(lib_a-fclose.o)
                                                  /usr/lib/gcc/arm-none-eabi/4.9.3/../../../arm-none-eabi/lib/armv7-m/libc.a(lib_a-reent.o)
                                                  /usr/lib/gcc/arm-none-eabi/4.9.3/../../../arm-none-eabi/lib/armv7-m/libc.a(lib_a-reallocr.o)
                                                  /usr/lib/gcc/arm-none-eabi/4.9.3/../../../arm-none-eabi/lib/armv7-m/libc.a(lib_a-mallocr.o)
                                                  /usr/lib/gcc/arm-none-eabi/4.9.3/../../../arm-none-eabi/lib/armv7-m/libc.a(lib_a-fvwrite.o)
                                                  /usr/lib/gcc/arm-none-eabi/4.9.3/../../../arm-none-eabi/lib/armv7-m/libc.a(lib_a-fflush.o)
                                                  /usr/lib/gcc/arm-none-eabi/4.9.3/../../../arm-none-eabi/lib/armv7-m/libc.a(lib_a-wsetup.o)
_fstat_r                                          build/obj/syscalls.o
                                                  /usr/lib/gcc/arm-none-eabi/4.9.3/../../../arm-none-eabi/lib/armv7-m/libc.a(lib_a-makebuf.o)
_fwalk                                            /usr/lib/gcc/arm-none-eabi/4.9.3/../../../arm-none-eabi/lib/armv7-m/libc.a(lib_a-fwalk.o)
                                                  /usr/lib/gcc/arm-none-eabi/4.9.3/../../../arm-none-eabi/lib/armv7-m/libc.a(lib_a-findfp.o)
_fwalk_reent                                      /usr/lib/gcc/arm-none-eabi/4.9.3/../../../arm-none-eabi/lib/armv7-m/libc.a(lib_a-fwalk.o)
                                                  /usr/lib/gcc/arm-none-eabi/4.9.3/../../../arm-none-eabi/lib/armv7-m/libc.a(lib_a-findfp.o)
                                                  /usr/lib/gcc/arm-none-eabi/4.9.3/../../../arm-none-eabi/lib/armv7-m/libc.a(lib_a-fflush.o)
_getpid                                           build/obj/syscalls.o
                                                  /usr/lib/gcc/arm-none-eabi/4.9.3/../../../arm-none-eabi/lib/armv7-m/libc.a(lib_a-signalr.o)
_getpid_r                                         /usr/lib/gcc/arm-none-eabi/4.9.3/../../../arm-none-eabi/lib/armv7-m/libc.a(lib_a-signalr.o)
                                                  /usr/lib/gcc/arm-none-eabi/4.9.3/../../../arm-none-eabi/lib/armv7-m/libc.a(lib_a-signal.o)
_global_impure_ptr                                /usr/lib/gcc/arm-none-eabi/4.9.3/../../../arm-none-eabi/lib/armv7-m/libc.a(lib_a-impure.o)
                                                  /usr/lib/gcc/arm-none-eabi/4.9.3/../../../arm-none-eabi/lib/armv7-m/libc.a(lib_a-findfp.o)
                                                  /usr/lib/gcc/arm-none-eabi/4.9.3/../../../arm-none-eabi/lib/armv7-m/libc.a(lib_a-fflush.o)
_heap_init                                        build/obj/chheap.o
                                                  build/obj/chsys.o
_idle_thread                                      build/obj/chsys.o
_idle_thread_wa                                   build/obj/chsys.o
_impure_ptr                                       /usr/lib/gcc/arm-none-eabi/4.9.3/../../../arm-none-eabi/lib/armv7-m/libc.a(lib_a-impure.o)
                                                  /usr/lib/gcc/arm-none-eabi/4.9.3/../../../arm-none-eabi/lib/armv7-m/libc.a(lib_a-fclose.o)
                                                  /usr/lib/gcc/arm-none-eabi/4.9.3/../../../arm-none-eabi/lib/armv7-m/libc.a(lib_a-wcrtomb.o)
                                                  /usr/lib/gcc/arm-none-eabi/4.9.3/../../../arm-none-eabi/lib/armv7-m/libc.a(lib_a-wbuf.o)
                                                  /usr/lib/gcc/arm-none-eabi/4.9.3/../../../arm-none-eabi/lib/armv7-m/libc.a(lib_a-reent.o)
                                                  /usr/lib/gcc/arm-none-eabi/4.9.3/../../../arm-none-eabi/lib/armv7-m/libc.a(lib_a-locale.o)
                                                  /usr/lib/gcc/arm-none-eabi/4.9.3/../../../arm-none-eabi/lib/armv7-m/libc.a(lib_a-fputwc.o)
                                                  /usr/lib/gcc/arm-none-eabi/4.9.3/../../../arm-none-eabi/lib/armv7-m/libc.a(lib_a-findfp.o)
                                                  /usr/lib/gcc/arm-none-eabi/4.9.3/../../../arm-none-eabi/lib/armv7-m/libc.a(lib_a-fflush.o)
                                                  /usr/lib/gcc/arm-none-eabi/4.9.3/../../../arm-none-eabi/lib/armv7-m/libc.a(lib_a-wsetup.o)
                                                  /usr/lib/gcc/arm-none-eabi/4.9.3/../../../arm-none-eabi/lib/armv7-m/libc.a(lib_a-vfiprintf.o)
                                                  /usr/lib/gcc/arm-none-eabi/4.9.3/../../../arm-none-eabi/lib/armv7-m/libc.a(lib_a-signal.o)
                                                  /usr/lib/gcc/arm-none-eabi/4.9.3/../../../arm-none-eabi/lib/armv7-m/libc.a(lib_a-fiprintf.o)
                                                  /usr/lib/gcc/arm-none-eabi/4.9.3/../../../arm-none-eabi/lib/armv7-m/libc.a(lib_a-errno.o)
                                                  /usr/lib/gcc/arm-none-eabi/4.9.3/../../../arm-none-eabi/lib/armv7-m/libc.a(lib_a-assert.o)
_init_signal                                      /usr/lib/gcc/arm-none-eabi/4.9.3/../../../arm-none-eabi/lib/armv7-m/libc.a(lib_a-signal.o)
_init_signal_r                                    /usr/lib/gcc/arm-none-eabi/4.9.3/../../../arm-none-eabi/lib/armv7-m/libc.a(lib_a-signal.o)
_isatty_r                                         build/obj/syscalls.o
                                                  /usr/lib/gcc/arm-none-eabi/4.9.3/../../../arm-none-eabi/lib/armv7-m/libc.a(lib_a-makebuf.o)
_kill                                             build/obj/syscalls.o
                                                  /usr/lib/gcc/arm-none-eabi/4.9.3/../../../arm-none-eabi/lib/armv7-m/libc.a(lib_a-signalr.o)
_kill_r                                           /usr/lib/gcc/arm-none-eabi/4.9.3/../../../arm-none-eabi/lib/armv7-m/libc.a(lib_a-signalr.o)
                                                  /usr/lib/gcc/arm-none-eabi/4.9.3/../../../arm-none-eabi/lib/armv7-m/libc.a(lib_a-signal.o)
_localeconv_r                                     /usr/lib/gcc/arm-none-eabi/4.9.3/../../../arm-none-eabi/lib/armv7-m/libc.a(lib_a-locale.o)
_lseek_r                                          build/obj/syscalls.o
                                                  /usr/lib/gcc/arm-none-eabi/4.9.3/../../../arm-none-eabi/lib/armv7-m/libc.a(lib_a-stdio.o)
_malloc_r                                         /usr/lib/gcc/arm-none-eabi/4.9.3/../../../arm-none-eabi/lib/armv7-m/libc.a(lib_a-mallocr.o)
                                                  /usr/lib/gcc/arm-none-eabi/4.9.3/../../../arm-none-eabi/lib/armv7-m/libc.a(lib_a-reallocr.o)
                                                  /usr/lib/gcc/arm-none-eabi/4.9.3/../../../arm-none-eabi/lib/armv7-m/libc.a(lib_a-makebuf.o)
                                                  /usr/lib/gcc/arm-none-eabi/4.9.3/../../../arm-none-eabi/lib/armv7-m/libc.a(lib_a-fvwrite.o)
                                                  /usr/lib/gcc/arm-none-eabi/4.9.3/../../../arm-none-eabi/lib/armv7-m/libc.a(lib_a-findfp.o)
                                                  /usr/lib/gcc/arm-none-eabi/4.9.3/../../../arm-none-eabi/lib/armv7-m/libc.a(lib_a-signal.o)
_malloc_trim_r                                    /usr/lib/gcc/arm-none-eabi/4.9.3/../../../arm-none-eabi/lib/armv7-m/libc.a(lib_a-freer.o)
_pal_lld_init                                     build/obj/pal_lld.o
                                                  build/obj/hal.o
_pal_lld_setgroupmode                             build/obj/pal_lld.o
                                                  build/obj/board.o
                                                  build/obj/pal.o
_port_init                                        build/obj/chcore_v7m.o
                                                  build/obj/chsys.o
_port_irq_epilogue                                build/obj/chcore_v7m.o
                                                  build/obj/serial_lld.o
_port_switch                                      build/obj/chcore_v7m.o
                                                  build/obj/chschd.o
_port_switch_from_isr                             build/obj/chcore_v7m.o
_port_thread_start                                build/obj/chcore_v7m.o
                                                  build/obj/chthreads.o
_raise_r                                          /usr/lib/gcc/arm-none-eabi/4.9.3/../../../arm-none-eabi/lib/armv7-m/libc.a(lib_a-signal.o)
_read_r                                           build/obj/syscalls.o
                                                  /usr/lib/gcc/arm-none-eabi/4.9.3/../../../arm-none-eabi/lib/armv7-m/libc.a(lib_a-stdio.o)
_realloc_r                                        /usr/lib/gcc/arm-none-eabi/4.9.3/../../../arm-none-eabi/lib/armv7-m/libc.a(lib_a-reallocr.o)
                                                  /usr/lib/gcc/arm-none-eabi/4.9.3/../../../arm-none-eabi/lib/armv7-m/libc.a(lib_a-fvwrite.o)
_reclaim_reent                                    /usr/lib/gcc/arm-none-eabi/4.9.3/../../../arm-none-eabi/lib/armv7-m/libc.a(lib_a-reent.o)
_sbrk_r                                           build/obj/syscalls.o
                                                  /usr/lib/gcc/arm-none-eabi/4.9.3/../../../arm-none-eabi/lib/armv7-m/libc.a(lib_a-mallocr.o)
                                                  /usr/lib/gcc/arm-none-eabi/4.9.3/../../../arm-none-eabi/lib/armv7-m/libc.a(lib_a-freer.o)
_scheduler_init                                   build/obj/chschd.o
                                                  build/obj/chsys.o
_setlocale_r                                      /usr/lib/gcc/arm-none-eabi/4.9.3/../../../arm-none-eabi/lib/armv7-m/libc.a(lib_a-locale.o)
_signal_r                                         /usr/lib/gcc/arm-none-eabi/4.9.3/../../../arm-none-eabi/lib/armv7-m/libc.a(lib_a-signal.o)
_test_assert                                      build/obj/test.o
                                                  build/obj/testqueues.o
                                                  build/obj/testdyn.o
                                                  build/obj/testpools.o
                                                  build/obj/testheap.o
                                                  build/obj/testevt.o
                                                  build/obj/testmbox.o
                                                  build/obj/testmtx.o
                                                  build/obj/testsem.o
                                                  build/obj/testthd.o
_test_assert_sequence                             build/obj/test.o
                                                  build/obj/testqueues.o
                                                  build/obj/testdyn.o
                                                  build/obj/testevt.o
                                                  build/obj/testmbox.o
                                                  build/obj/testmsg.o
                                                  build/obj/testmtx.o
                                                  build/obj/testsem.o
                                                  build/obj/testthd.o
_test_assert_time_window                          build/obj/test.o
                                                  build/obj/testevt.o
                                                  build/obj/testmtx.o
                                                  build/obj/testsem.o
                                                  build/obj/testthd.o
_test_fail                                        build/obj/test.o
_textdata                                         build/obj/crt0.o
_thread_init                                      build/obj/chthreads.o
                                                  build/obj/chsys.o
_unhandled_exception                              build/obj/vectors.o
_vectors                                          build/obj/vectors.o
_vfiprintf_r                                      /usr/lib/gcc/arm-none-eabi/4.9.3/../../../arm-none-eabi/lib/armv7-m/libc.a(lib_a-vfiprintf.o)
                                                  /usr/lib/gcc/arm-none-eabi/4.9.3/../../../arm-none-eabi/lib/armv7-m/libc.a(lib_a-fiprintf.o)
_vt_init                                          build/obj/chvt.o
                                                  build/obj/chsys.o
_wcrtomb_r                                        /usr/lib/gcc/arm-none-eabi/4.9.3/../../../arm-none-eabi/lib/armv7-m/libc.a(lib_a-wcrtomb.o)
                                                  /usr/lib/gcc/arm-none-eabi/4.9.3/../../../arm-none-eabi/lib/armv7-m/libc.a(lib_a-fputwc.o)
_wctomb_r                                         /usr/lib/gcc/arm-none-eabi/4.9.3/../../../arm-none-eabi/lib/armv7-m/libc.a(lib_a-wctomb_r.o)
_write_r                                          build/obj/syscalls.o
                                                  /usr/lib/gcc/arm-none-eabi/4.9.3/../../../arm-none-eabi/lib/armv7-m/libc.a(lib_a-stdio.o)
abort                                             /usr/lib/gcc/arm-none-eabi/4.9.3/../../../arm-none-eabi/lib/armv7-m/libc.a(lib_a-abort.o)
                                                  /usr/lib/gcc/arm-none-eabi/4.9.3/../../../arm-none-eabi/lib/armv7-m/libc.a(lib_a-assert.o)
                                                  /usr/lib/gcc/arm-none-eabi/4.9.3/armv7-m/libgcc.a(pr-support.o)
                                                  /usr/lib/gcc/arm-none-eabi/4.9.3/armv7-m/libgcc.a(unwind-arm.o)
at91sam3_clock_init                               build/obj/hal_lld.o
                                                  build/obj/board.o
atan                                              /usr/lib/gcc/arm-none-eabi/4.9.3/../../../arm-none-eabi/lib/armv7-m/libm.a(lib_a-s_atan.o)
                                                  /usr/lib/gcc/arm-none-eabi/4.9.3/../../../arm-none-eabi/lib/armv7-m/libm.a(lib_a-e_atan2.o)
atan2                                             /usr/lib/gcc/arm-none-eabi/4.9.3/../../../arm-none-eabi/lib/armv7-m/libm.a(lib_a-w_atan2.o)
                                                  build/obj/main.o
boardInit                                         build/obj/board.o
                                                  build/obj/hal.o
calculate_pid()                                   build/obj/main.o
chCondBroadcast                                   build/obj/chcond.o
                                                  build/obj/testmtx.o
chCondBroadcastI                                  build/obj/chcond.o
chCondInit                                        build/obj/chcond.o
                                                  build/obj/testmtx.o
chCondSignal                                      build/obj/chcond.o
                                                  build/obj/testmtx.o
chCondSignalI                                     build/obj/chcond.o
                                                  build/obj/testmtx.o
chCondWait                                        build/obj/chcond.o
                                                  build/obj/testmtx.o
chCondWaitS                                       build/obj/chcond.o
chCondWaitTimeout                                 build/obj/chcond.o
                                                  build/obj/testmtx.o
chCondWaitTimeoutS                                build/obj/chcond.o
chCoreAlloc                                       build/obj/chmemcore.o
                                                  build/obj/syscalls.o
                                                  build/obj/chheap.o
chCoreAllocI                                      build/obj/chmemcore.o
chCoreStatus                                      build/obj/chmemcore.o
                                                  build/obj/testheap.o
chEvtAddFlags                                     build/obj/chevents.o
                                                  build/obj/testevt.o
chEvtBroadcastFlags                               build/obj/chevents.o
                                                  build/obj/testevt.o
chEvtBroadcastFlagsI                              build/obj/chevents.o
                                                  build/obj/evtimer.o
                                                  build/obj/serial_lld.o
                                                  build/obj/serial.o
chEvtClearFlags                                   build/obj/chevents.o
                                                  build/obj/testevt.o
chEvtDispatch                                     build/obj/chevents.o
                                                  build/obj/testevt.o
chEvtRegisterMask                                 build/obj/chevents.o
                                                  build/obj/testevt.o
chEvtSignalFlags                                  build/obj/chevents.o
                                                  build/obj/testevt.o
chEvtSignalFlagsI                                 build/obj/chevents.o
chEvtUnregister                                   build/obj/chevents.o
                                                  build/obj/testevt.o
chEvtWaitAll                                      build/obj/chevents.o
                                                  build/obj/testevt.o
chEvtWaitAllTimeout                               build/obj/chevents.o
                                                  build/obj/testevt.o
chEvtWaitAny                                      build/obj/chevents.o
                                                  build/obj/testevt.o
chEvtWaitAnyTimeout                               build/obj/chevents.o
                                                  build/obj/testevt.o
chEvtWaitOne                                      build/obj/chevents.o
                                                  build/obj/testevt.o
chEvtWaitOneTimeout                               build/obj/chevents.o
                                                  build/obj/testevt.o
chHeapAlloc                                       build/obj/chheap.o
                                                  build/obj/testdyn.o
                                                  build/obj/testheap.o
                                                  build/obj/chdynamic.o
chHeapFree                                        build/obj/chheap.o
                                                  build/obj/testdyn.o
                                                  build/obj/testheap.o
                                                  build/obj/chdynamic.o
chHeapInit                                        build/obj/chheap.o
                                                  build/obj/testdyn.o
                                                  build/obj/testheap.o
chHeapStatus                                      build/obj/chheap.o
                                                  build/obj/testdyn.o
                                                  build/obj/testheap.o
chIQGetTimeout                                    build/obj/chqueues.o
                                                  build/obj/serial.o
                                                  build/obj/testbmk.o
                                                  build/obj/testqueues.o
chIQInit                                          build/obj/chqueues.o
                                                  build/obj/serial.o
                                                  build/obj/testbmk.o
                                                  build/obj/testqueues.o
chIQPutI                                          build/obj/chqueues.o
                                                  build/obj/serial.o
                                                  build/obj/testbmk.o
                                                  build/obj/testqueues.o
chIQReadTimeout                                   build/obj/chqueues.o
                                                  build/obj/serial.o
                                                  build/obj/testqueues.o
chIQResetI                                        build/obj/chqueues.o
                                                  build/obj/serial.o
                                                  build/obj/testqueues.o
chMBFetch                                         build/obj/chmboxes.o
                                                  build/obj/testmbox.o
chMBFetchI                                        build/obj/chmboxes.o
                                                  build/obj/testmbox.o
chMBFetchS                                        build/obj/chmboxes.o
chMBInit                                          build/obj/chmboxes.o
                                                  build/obj/testmbox.o
chMBPost                                          build/obj/chmboxes.o
                                                  build/obj/testmbox.o
chMBPostAhead                                     build/obj/chmboxes.o
                                                  build/obj/testmbox.o
chMBPostAheadI                                    build/obj/chmboxes.o
                                                  build/obj/testmbox.o
chMBPostAheadS                                    build/obj/chmboxes.o
chMBPostI                                         build/obj/chmboxes.o
                                                  build/obj/testmbox.o
chMBPostS                                         build/obj/chmboxes.o
chMBReset                                         build/obj/chmboxes.o
                                                  build/obj/testmbox.o
chMsgRelease                                      build/obj/chmsg.o
                                                  build/obj/testbmk.o
                                                  build/obj/testmsg.o
chMsgSend                                         build/obj/chmsg.o
                                                  build/obj/testbmk.o
                                                  build/obj/testmsg.o
chMsgWait                                         build/obj/chmsg.o
                                                  build/obj/testbmk.o
                                                  build/obj/testmsg.o
chMtxInit                                         build/obj/chmtx.o
                                                  build/obj/testbmk.o
                                                  build/obj/testmtx.o
                                                  build/obj/chheap.o
chMtxLock                                         build/obj/chmtx.o
                                                  build/obj/testbmk.o
                                                  build/obj/testmtx.o
                                                  build/obj/chheap.o
chMtxLockS                                        build/obj/chmtx.o
                                                  build/obj/chcond.o
chMtxTryLock                                      build/obj/chmtx.o
                                                  build/obj/testmtx.o
chMtxTryLockS                                     build/obj/chmtx.o
chMtxUnlock                                       build/obj/chmtx.o
                                                  build/obj/testbmk.o
                                                  build/obj/testmtx.o
                                                  build/obj/chheap.o
chMtxUnlockAll                                    build/obj/chmtx.o
                                                  build/obj/testmtx.o
chMtxUnlockS                                      build/obj/chmtx.o
                                                  build/obj/testmtx.o
                                                  build/obj/chcond.o
chOQGetI                                          build/obj/chqueues.o
                                                  build/obj/serial_lld.o
                                                  build/obj/serial.o
                                                  build/obj/testqueues.o
chOQInit                                          build/obj/chqueues.o
                                                  build/obj/serial.o
                                                  build/obj/testqueues.o
chOQPutTimeout                                    build/obj/chqueues.o
                                                  build/obj/serial.o
                                                  build/obj/testqueues.o
chOQResetI                                        build/obj/chqueues.o
                                                  build/obj/serial.o
                                                  build/obj/testqueues.o
chOQWriteTimeout                                  build/obj/chqueues.o
                                                  build/obj/serial.o
                                                  build/obj/testqueues.o
chPoolAlloc                                       build/obj/chmempools.o
                                                  build/obj/testdyn.o
                                                  build/obj/testpools.o
                                                  build/obj/chdynamic.o
chPoolAllocI                                      build/obj/chmempools.o
chPoolFree                                        build/obj/chmempools.o
                                                  build/obj/testdyn.o
                                                  build/obj/testpools.o
                                                  build/obj/chdynamic.o
chPoolFreeI                                       build/obj/chmempools.o
chPoolInit                                        build/obj/chmempools.o
                                                  build/obj/testdyn.o
                                                  build/obj/testpools.o
chRegFirstThread                                  build/obj/chregistry.o
                                                  build/obj/testdyn.o
chRegNextThread                                   build/obj/chregistry.o
                                                  build/obj/testdyn.o
chSchDoReschedule                                 build/obj/chschd.o
                                                  build/obj/chthreads.o
                                                  build/obj/chcore_v7m.o
chSchGoSleepS                                     build/obj/chschd.o
                                                  build/obj/testbmk.o
                                                  build/obj/chmsg.o
                                                  build/obj/chevents.o
                                                  build/obj/chcond.o
                                                  build/obj/chmtx.o
                                                  build/obj/chsem.o
                                                  build/obj/chthreads.o
chSchGoSleepTimeoutS                              build/obj/chschd.o
                                                  build/obj/chqueues.o
                                                  build/obj/chevents.o
                                                  build/obj/chcond.o
                                                  build/obj/chsem.o
                                                  build/obj/chthreads.o
chSchReadyI                                       build/obj/chschd.o
                                                  build/obj/chqueues.o
                                                  build/obj/chmsg.o
                                                  build/obj/chevents.o
                                                  build/obj/chcond.o
                                                  build/obj/chmtx.o
                                                  build/obj/chsem.o
                                                  build/obj/chthreads.o
chSchRescheduleS                                  build/obj/chschd.o
                                                  build/obj/serial.o
                                                  build/obj/testmtx.o
                                                  build/obj/testsem.o
                                                  build/obj/chmboxes.o
                                                  build/obj/chevents.o
                                                  build/obj/chcond.o
                                                  build/obj/chmtx.o
                                                  build/obj/chsem.o
                                                  build/obj/chthreads.o
chSchWakeupS                                      build/obj/chschd.o
                                                  build/obj/testbmk.o
                                                  build/obj/chmsg.o
                                                  build/obj/chcond.o
                                                  build/obj/chmtx.o
                                                  build/obj/chsem.o
                                                  build/obj/chdynamic.o
                                                  build/obj/chthreads.o
chSemAddCounterI                                  build/obj/chsem.o
                                                  build/obj/testsem.o
chSemInit                                         build/obj/chsem.o
                                                  build/obj/testbmk.o
                                                  build/obj/testsem.o
                                                  build/obj/chmboxes.o
chSemReset                                        build/obj/chsem.o
                                                  build/obj/testbmk.o
                                                  build/obj/testsem.o
chSemResetI                                       build/obj/chsem.o
                                                  build/obj/chmboxes.o
chSemSignal                                       build/obj/chsem.o
                                                  build/obj/testbmk.o
                                                  build/obj/testsem.o
chSemSignalI                                      build/obj/chsem.o
                                                  build/obj/testsem.o
                                                  build/obj/chmboxes.o
chSemSignalWait                                   build/obj/chsem.o
                                                  build/obj/testsem.o
chSemWait                                         build/obj/chsem.o
                                                  build/obj/testbmk.o
                                                  build/obj/testsem.o
chSemWaitS                                        build/obj/chsem.o
chSemWaitTimeout                                  build/obj/chsem.o
                                                  build/obj/testsem.o
chSemWaitTimeoutS                                 build/obj/chsem.o
                                                  build/obj/chmboxes.o
chSysInit                                         build/obj/chsys.o
                                                  build/obj/main.o
chSysTimerHandlerI                                build/obj/chsys.o
                                                  build/obj/chcore_v7m.o
chThdAddRef                                       build/obj/chdynamic.o
                                                  build/obj/testdyn.o
chThdCreateFromHeap                               build/obj/chdynamic.o
                                                  build/obj/testdyn.o
chThdCreateFromMemoryPool                         build/obj/chdynamic.o
                                                  build/obj/testdyn.o
chThdCreateI                                      build/obj/chthreads.o
                                                  build/obj/testthd.o
                                                  build/obj/chdynamic.o
chThdCreateStatic                                 build/obj/chthreads.o
                                                  build/obj/main.o
                                                  build/obj/testbmk.o
                                                  build/obj/testqueues.o
                                                  build/obj/testevt.o
                                                  build/obj/testmsg.o
                                                  build/obj/testmtx.o
                                                  build/obj/testsem.o
                                                  build/obj/testthd.o
                                                  build/obj/chsys.o
chThdExit                                         build/obj/chthreads.o
                                                  build/obj/chcore_v7m.o
chThdExitS                                        build/obj/chthreads.o
chThdRelease                                      build/obj/chdynamic.o
                                                  build/obj/testdyn.o
                                                  build/obj/chregistry.o
                                                  build/obj/chthreads.o
chThdResume                                       build/obj/chthreads.o
                                                  build/obj/testthd.o
chThdSetPriority                                  build/obj/chthreads.o
                                                  build/obj/testthd.o
chThdSleep                                        build/obj/chthreads.o
                                                  build/obj/main.o
                                                  build/obj/mpl3115a2.o
                                                  build/obj/testbmk.o
                                                  build/obj/testdyn.o
                                                  build/obj/testevt.o
                                                  build/obj/testmtx.o
                                                  build/obj/testsem.o
                                                  build/obj/testthd.o
                                                  build/obj/test.o
chThdSleepUntil                                   build/obj/chthreads.o
                                                  build/obj/testthd.o
chThdTerminate                                    build/obj/chthreads.o
                                                  build/obj/test.o
chThdWait                                         build/obj/chthreads.o
                                                  build/obj/testbmk.o
                                                  build/obj/test.o
chThdYield                                        build/obj/chthreads.o
                                                  build/obj/testbmk.o
chTimeIsWithin                                    build/obj/chvt.o
                                                  build/obj/test.o
chVTResetI                                        build/obj/chvt.o
                                                  build/obj/evtimer.o
                                                  build/obj/testbmk.o
                                                  build/obj/chschd.o
chVTSetI                                          build/obj/chvt.o
                                                  build/obj/evtimer.o
                                                  build/obj/testbmk.o
                                                  build/obj/test.o
                                                  build/obj/chschd.o
chprintf                                          build/obj/chprintf.o
                                                  build/obj/atmel_adc.o
cleanup_glue                                      /usr/lib/gcc/arm-none-eabi/4.9.3/../../../arm-none-eabi/lib/armv7-m/libc.a(lib_a-reent.o)
creator::HTS221::Begin()                          build/obj/hts221.o
creator::HTS221::GetData(float&, float&)          build/obj/hts221.o
creator::HTS221::HTS221(creator::I2C*, unsigned char) build/obj/hts221.o
creator::HTS221::HTS221(creator::I2C*, unsigned char) build/obj/hts221.o
creator::HTS221::Read(unsigned char)              build/obj/hts221.o
creator::HTS221::Read(unsigned char, unsigned char*, unsigned char) build/obj/hts221.o
creator::HTS221::Write(unsigned char, unsigned char) build/obj/hts221.o
creator::I2C::Init()                              build/obj/i2c.o
                                                  build/obj/main.o
creator::I2C::ReadByte(unsigned char)             build/obj/i2c.o
                                                  build/obj/veml6070.o
creator::I2C::ReadByte(unsigned char, unsigned char) build/obj/i2c.o
                                                  build/obj/mpl3115a2.o
                                                  build/obj/lsm9ds1.o
                                                  build/obj/hts221.o
creator::I2C::ReadBytes(unsigned char, unsigned char, unsigned char*, unsigned char) build/obj/i2c.o
                                                  build/obj/mpl3115a2.o
                                                  build/obj/lsm9ds1.o
                                                  build/obj/hts221.o
creator::I2C::WriteByte(unsigned char, unsigned char) build/obj/i2c.o
                                                  build/obj/veml6070.o
creator::I2C::WriteByte(unsigned char, unsigned char, unsigned char) build/obj/i2c.o
                                                  build/obj/mpl3115a2.o
                                                  build/obj/lsm9ds1.o
                                                  build/obj/hts221.o
creator::MPL3115A2::Begin()                       build/obj/mpl3115a2.o
creator::MPL3115A2::GetAltitude()                 build/obj/mpl3115a2.o
creator::MPL3115A2::GetPressure()                 build/obj/mpl3115a2.o
creator::MPL3115A2::GetTemperature()              build/obj/mpl3115a2.o
creator::MPL3115A2::MPL3115A2(creator::I2C*, unsigned char) build/obj/mpl3115a2.o
creator::MPL3115A2::MPL3115A2(creator::I2C*, unsigned char) build/obj/mpl3115a2.o
creator::MPL3115A2::Read(unsigned char)           build/obj/mpl3115a2.o
creator::MPL3115A2::Write(unsigned char, unsigned char) build/obj/mpl3115a2.o
creator::VEML6070::Begin()                        build/obj/veml6070.o
creator::VEML6070::GetUV()                        build/obj/veml6070.o
creator::VEML6070::VEML6070(creator::I2C*)        build/obj/veml6070.o
creator::VEML6070::VEML6070(creator::I2C*)        build/obj/veml6070.o
dataimu                                           build/obj/main.o
errno                                             /usr/lib/gcc/arm-none-eabi/4.9.3/../../../arm-none-eabi/lib/armv7-m/libc.a(lib_a-reent.o)
                                                  /usr/lib/gcc/arm-none-eabi/4.9.3/../../../arm-none-eabi/lib/armv7-m/libc.a(lib_a-signalr.o)
evtStart                                          build/obj/evtimer.o
evtStop                                           build/obj/evtimer.o
fabs                                              /usr/lib/gcc/arm-none-eabi/4.9.3/../../../arm-none-eabi/lib/armv7-m/libm.a(lib_a-s_fabs.o)
                                                  /usr/lib/gcc/arm-none-eabi/4.9.3/../../../arm-none-eabi/lib/armv7-m/libm.a(lib_a-s_atan.o)
                                                  /usr/lib/gcc/arm-none-eabi/4.9.3/../../../arm-none-eabi/lib/armv7-m/libm.a(lib_a-e_atan2.o)
fclose                                            /usr/lib/gcc/arm-none-eabi/4.9.3/../../../arm-none-eabi/lib/armv7-m/libc.a(lib_a-fclose.o)
fflush                                            /usr/lib/gcc/arm-none-eabi/4.9.3/../../../arm-none-eabi/lib/armv7-m/libc.a(lib_a-fflush.o)
fiprintf                                          /usr/lib/gcc/arm-none-eabi/4.9.3/../../../arm-none-eabi/lib/armv7-m/libc.a(lib_a-fiprintf.o)
                                                  /usr/lib/gcc/arm-none-eabi/4.9.3/../../../arm-none-eabi/lib/armv7-m/libc.a(lib_a-assert.o)
fputwc                                            /usr/lib/gcc/arm-none-eabi/4.9.3/../../../arm-none-eabi/lib/armv7-m/libc.a(lib_a-fputwc.o)
getChar(unsigned long, char)                      build/obj/main.o
halInit                                           build/obj/hal.o
                                                  build/obj/main.o
hal_lld_init                                      build/obj/hal_lld.o
                                                  build/obj/hal.o
i2c                                               build/obj/main.o
initMotors(PWMData*)                              build/obj/main.o
localeconv                                        /usr/lib/gcc/arm-none-eabi/4.9.3/../../../arm-none-eabi/lib/armv7-m/libc.a(lib_a-locale.o)
magSensitivity                                    build/obj/lsm9ds1.o
main                                              build/obj/main.o
                                                  build/obj/crt0.o
matherr                                           /usr/lib/gcc/arm-none-eabi/4.9.3/../../../arm-none-eabi/lib/armv7-m/libm.a(lib_a-s_matherr.o)
                                                  /usr/lib/gcc/arm-none-eabi/4.9.3/../../../arm-none-eabi/lib/armv7-m/libm.a(lib_a-w_sqrt.o)
maxPwm                                            build/obj/main.o
memchr                                            /usr/lib/gcc/arm-none-eabi/4.9.3/../../../arm-none-eabi/lib/armv7-m/libc.a(lib_a-memchr.o)
                                                  /usr/lib/gcc/arm-none-eabi/4.9.3/../../../arm-none-eabi/lib/armv7-m/libc.a(lib_a-fvwrite.o)
                                                  /usr/lib/gcc/arm-none-eabi/4.9.3/../../../arm-none-eabi/lib/armv7-m/libc.a(lib_a-vfiprintf.o)
memcpy                                            /usr/lib/gcc/arm-none-eabi/4.9.3/../../../arm-none-eabi/lib/armv7-m/libc.a(lib_a-memcpy.o)
                                                  /usr/lib/gcc/arm-none-eabi/4.9.3/../../../arm-none-eabi/lib/armv7-m/libc.a(lib_a-fvwrite.o)
                                                  /usr/lib/gcc/arm-none-eabi/4.9.3/armv7-m/libgcc.a(unwind-arm.o)
memmove                                           /usr/lib/gcc/arm-none-eabi/4.9.3/../../../arm-none-eabi/lib/armv7-m/libc.a(lib_a-memmove.o)
                                                  /usr/lib/gcc/arm-none-eabi/4.9.3/../../../arm-none-eabi/lib/armv7-m/libc.a(lib_a-reallocr.o)
                                                  /usr/lib/gcc/arm-none-eabi/4.9.3/../../../arm-none-eabi/lib/armv7-m/libc.a(lib_a-fvwrite.o)
memset                                            /usr/lib/gcc/arm-none-eabi/4.9.3/../../../arm-none-eabi/lib/armv7-m/libc.a(lib_a-memset.o)
                                                  /usr/lib/gcc/arm-none-eabi/4.9.3/../../../arm-none-eabi/lib/armv7-m/libc.a(lib_a-findfp.o)
                                                  build/obj/syscalls.o
minPwm                                            build/obj/main.o
nvicDisableVector                                 build/obj/nvic.o
                                                  build/obj/serial_lld.o
nvicEnableVector                                  build/obj/nvic.o
                                                  build/obj/serial_lld.o
nvicSetSystemHandlerPriority                      build/obj/nvic.o
                                                  build/obj/hal_lld.o
                                                  build/obj/chcore_v7m.o
palReadBus                                        build/obj/pal.o
palSetBusMode                                     build/obj/pal.o
palWriteBus                                       build/obj/pal.o
pal_default_config                                build/obj/board.o
                                                  build/obj/hal.o
patternbmk                                        build/obj/testbmk.o
                                                  build/obj/test.o
patterndyn                                        build/obj/testdyn.o
                                                  build/obj/test.o
patternevt                                        build/obj/testevt.o
                                                  build/obj/test.o
patternheap                                       build/obj/testheap.o
                                                  build/obj/test.o
patternmbox                                       build/obj/testmbox.o
                                                  build/obj/test.o
patternmsg                                        build/obj/testmsg.o
                                                  build/obj/test.o
patternmtx                                        build/obj/testmtx.o
                                                  build/obj/test.o
patternpools                                      build/obj/testpools.o
                                                  build/obj/test.o
patternqueues                                     build/obj/testqueues.o
                                                  build/obj/test.o
patternsem                                        build/obj/testsem.o
                                                  build/obj/test.o
patternthd                                        build/obj/testthd.o
                                                  build/obj/test.o
pid_d_gain_pitch                                  build/obj/main.o
pid_d_gain_roll                                   build/obj/main.o
pid_i_gain_pitch                                  build/obj/main.o
pid_i_gain_roll                                   build/obj/main.o
pid_i_mem_pitch                                   build/obj/main.o
pid_i_mem_roll                                    build/obj/main.o
pid_last_pitch_d_error                            build/obj/main.o
pid_last_roll_d_error                             build/obj/main.o
pid_max_pitch                                     build/obj/main.o
pid_max_roll                                      build/obj/main.o
pid_output_pitch                                  build/obj/main.o
pid_output_roll                                   build/obj/main.o
pid_p_gain_pitch                                  build/obj/main.o
pid_p_gain_roll                                   build/obj/main.o
pid_pitch_setpoint                                build/obj/main.o
pid_roll_setpoint                                 build/obj/main.o
plusDuty(PWMData*, int)                           build/obj/main.o
plusDuty2()                                       build/obj/main.o
port_halt                                         build/obj/chcore.o
psram_copy(unsigned long, char*, unsigned char)   build/obj/main.o
ptr                                               build/obj/main.o
raise                                             /usr/lib/gcc/arm-none-eabi/4.9.3/../../../arm-none-eabi/lib/armv7-m/libc.a(lib_a-signal.o)
                                                  /usr/lib/gcc/arm-none-eabi/4.9.3/../../../arm-none-eabi/lib/armv7-m/libc.a(lib_a-abort.o)
restore_core_regs                                 /usr/lib/gcc/arm-none-eabi/4.9.3/armv7-m/libgcc.a(libunwind.o)
                                                  /usr/lib/gcc/arm-none-eabi/4.9.3/armv7-m/libgcc.a(unwind-arm.o)
rlist                                             build/obj/chschd.o
                                                  build/obj/testbmk.o
                                                  build/obj/testqueues.o
                                                  build/obj/testdyn.o
                                                  build/obj/testevt.o
                                                  build/obj/testmsg.o
                                                  build/obj/testmtx.o
                                                  build/obj/testsem.o
                                                  build/obj/testthd.o
                                                  build/obj/test.o
                                                  build/obj/chqueues.o
                                                  build/obj/chmsg.o
                                                  build/obj/chevents.o
                                                  build/obj/chcond.o
                                                  build/obj/chmtx.o
                                                  build/obj/chsem.o
                                                  build/obj/chregistry.o
                                                  build/obj/chthreads.o
                                                  build/obj/chsys.o
                                                  build/obj/chcore_v7m.o
sdIncomingDataI                                   build/obj/serial.o
                                                  build/obj/serial_lld.o
sdInit                                            build/obj/serial.o
                                                  build/obj/hal.o
sdObjectInit                                      build/obj/serial.o
                                                  build/obj/serial_lld.o
sdRequestDataI                                    build/obj/serial.o
sdStart                                           build/obj/serial.o
                                                  build/obj/main.o
sdStop                                            build/obj/serial.o
sd_lld_init                                       build/obj/serial_lld.o
                                                  build/obj/serial.o
sd_lld_start                                      build/obj/serial_lld.o
                                                  build/obj/serial.o
sd_lld_stop                                       build/obj/serial_lld.o
                                                  build/obj/serial.o
set_duty(PWMData*, char, char, char, char)        build/obj/main.o
set_period(PWMData*, char, char, char)            build/obj/main.o
setlocale                                         /usr/lib/gcc/arm-none-eabi/4.9.3/../../../arm-none-eabi/lib/armv7-m/libc.a(lib_a-locale.o)
signal                                            /usr/lib/gcc/arm-none-eabi/4.9.3/../../../arm-none-eabi/lib/armv7-m/libc.a(lib_a-signal.o)
sqrt                                              /usr/lib/gcc/arm-none-eabi/4.9.3/../../../arm-none-eabi/lib/armv7-m/libm.a(lib_a-w_sqrt.o)
                                                  build/obj/main.o
strcmp                                            /usr/lib/gcc/arm-none-eabi/4.9.3/../../../arm-none-eabi/lib/armv7-m/libc.a(lib_a-strcmp.o)
                                                  /usr/lib/gcc/arm-none-eabi/4.9.3/../../../arm-none-eabi/lib/armv7-m/libc.a(lib_a-locale.o)
strlen                                            /usr/lib/gcc/arm-none-eabi/4.9.3/../../../arm-none-eabi/lib/armv7-m/libc.a(lib_a-strlen.o)
                                                  /usr/lib/gcc/arm-none-eabi/4.9.3/../../../arm-none-eabi/lib/armv7-m/libc.a(lib_a-vfiprintf.o)
test                                              build/obj/test.o
                                                  build/obj/testqueues.o
                                                  build/obj/testdyn.o
                                                  build/obj/testheap.o
                                                  build/obj/testmbox.o
test_cpu_pulse                                    build/obj/test.o
                                                  build/obj/testmtx.o
test_emit_token                                   build/obj/test.o
                                                  build/obj/testqueues.o
                                                  build/obj/testdyn.o
                                                  build/obj/testevt.o
                                                  build/obj/testmbox.o
                                                  build/obj/testmsg.o
                                                  build/obj/testmtx.o
                                                  build/obj/testsem.o
                                                  build/obj/testthd.o
test_print                                        build/obj/test.o
                                                  build/obj/testbmk.o
test_println                                      build/obj/test.o
                                                  build/obj/testbmk.o
test_printn                                       build/obj/test.o
                                                  build/obj/testbmk.o
test_start_timer                                  build/obj/test.o
                                                  build/obj/testbmk.o
test_terminate_threads                            build/obj/test.o
                                                  build/obj/testbmk.o
test_timer_done                                   build/obj/test.o
                                                  build/obj/testbmk.o
test_wait_threads                                 build/obj/test.o
                                                  build/obj/testbmk.o
                                                  build/obj/testqueues.o
                                                  build/obj/testdyn.o
                                                  build/obj/testevt.o
                                                  build/obj/testmtx.o
                                                  build/obj/testsem.o
                                                  build/obj/testthd.o
test_wait_tick                                    build/obj/test.o
                                                  build/obj/testbmk.o
                                                  build/obj/testevt.o
                                                  build/obj/testmtx.o
                                                  build/obj/testsem.o
                                                  build/obj/testthd.o
testbmk1                                          build/obj/testbmk.o
testbmk10                                         build/obj/testbmk.o
testbmk11                                         build/obj/testbmk.o
testbmk12                                         build/obj/testbmk.o
testbmk13                                         build/obj/testbmk.o
testbmk2                                          build/obj/testbmk.o
testbmk3                                          build/obj/testbmk.o
testbmk4                                          build/obj/testbmk.o
testbmk5                                          build/obj/testbmk.o
testbmk6                                          build/obj/testbmk.o
testbmk7                                          build/obj/testbmk.o
testbmk8                                          build/obj/testbmk.o
testbmk9                                          build/obj/testbmk.o
testdyn1                                          build/obj/testdyn.o
testdyn2                                          build/obj/testdyn.o
testdyn3                                          build/obj/testdyn.o
testevt1                                          build/obj/testevt.o
testevt2                                          build/obj/testevt.o
testevt3                                          build/obj/testevt.o
testheap1                                         build/obj/testheap.o
testmbox1                                         build/obj/testmbox.o
testmsg1                                          build/obj/testmsg.o
testmtx1                                          build/obj/testmtx.o
testmtx2                                          build/obj/testmtx.o
testmtx3                                          build/obj/testmtx.o
testmtx4                                          build/obj/testmtx.o
testmtx5                                          build/obj/testmtx.o
testmtx6                                          build/obj/testmtx.o
testmtx7                                          build/obj/testmtx.o
testmtx8                                          build/obj/testmtx.o
testpools1                                        build/obj/testpools.o
testqueues1                                       build/obj/testqueues.o
testqueues2                                       build/obj/testqueues.o
testsem1                                          build/obj/testsem.o
testsem2                                          build/obj/testsem.o
testsem3                                          build/obj/testsem.o
testsem4                                          build/obj/testsem.o
testthd1                                          build/obj/testthd.o
testthd2                                          build/obj/testthd.o
testthd3                                          build/obj/testthd.o
testthd4                                          build/obj/testthd.o
thread4                                           build/obj/testbmk.o
threads                                           build/obj/test.o
                                                  build/obj/testbmk.o
                                                  build/obj/testqueues.o
                                                  build/obj/testdyn.o
                                                  build/obj/testevt.o
                                                  build/obj/testmsg.o
                                                  build/obj/testmtx.o
                                                  build/obj/testsem.o
                                                  build/obj/testthd.o
vfiprintf                                         /usr/lib/gcc/arm-none-eabi/4.9.3/../../../arm-none-eabi/lib/armv7-m/libc.a(lib_a-vfiprintf.o)
vtlist                                            build/obj/chvt.o
                                                  build/obj/testevt.o
                                                  build/obj/testmtx.o
                                                  build/obj/testsem.o
                                                  build/obj/testthd.o
                                                  build/obj/test.o
                                                  build/obj/chthreads.o
                                                  build/obj/chsys.o
wa                                                build/obj/test.o
                                                  build/obj/testbmk.o
                                                  build/obj/testqueues.o
                                                  build/obj/testdyn.o
                                                  build/obj/testpools.o
                                                  build/obj/testevt.o
                                                  build/obj/testmsg.o
                                                  build/obj/testmtx.o
                                                  build/obj/testsem.o
                                                  build/obj/testthd.o
wcrtomb                                           /usr/lib/gcc/arm-none-eabi/4.9.3/../../../arm-none-eabi/lib/armv7-m/libc.a(lib_a-wcrtomb.o)
