ARM GAS  /tmp/ccCg7YAS.s 			page 1


   1              		.syntax unified
   2              		.cpu cortex-m3
   3              		.fpu softvfp
   4              		.eabi_attribute 20, 1
   5              		.eabi_attribute 21, 1
   6              		.eabi_attribute 23, 3
   7              		.eabi_attribute 24, 1
   8              		.eabi_attribute 25, 1
   9              		.eabi_attribute 26, 1
  10              		.eabi_attribute 30, 2
  11              		.eabi_attribute 34, 1
  12              		.eabi_attribute 18, 4
  13              		.thumb
  14              		.file	"main.cpp"
  15              		.text
  16              	.Ltext0:
  17              		.cfi_sections	.debug_frame
  18              		.section	.text._Z10psram_copymPch,"ax",%progbits
  19              		.align	2
  20              		.p2align 4,,15
  21              		.global	_Z10psram_copymPch
  22              		.thumb
  23              		.thumb_func
  24              		.type	_Z10psram_copymPch, %function
  25              	_Z10psram_copymPch:
  26              		.fnstart
  27              	.LFB36:
  28              		.file 1 "main.cpp"
  29              		.loc 1 50 0
  30              		.cfi_startproc
  31              		@ args = 0, pretend = 0, frame = 0
  32              		@ frame_needed = 0, uses_anonymous_args = 0
  33              		@ link register save eliminated.
  34              	.LVL0:
  35              	.LBB80:
  36              	.LBB81:
  37              		.loc 1 53 0
  38 0000 4AB1     		cbz	r2, .L1
  39 0002 00F1C640 		add	r0, r0, #1660944384
  40              	.LVL1:
  41 0006 0244     		add	r2, r2, r0
  42              	.LVL2:
  43 0008 0139     		subs	r1, r1, #1
  44              	.LVL3:
  45              	.L3:
  46              		.loc 1 54 0 discriminator 3
  47 000a 11F8013F 		ldrb	r3, [r1, #1]!	@ zero_extendqisi2
  48              	.LVL4:
  49 000e 00F8013B 		strb	r3, [r0], #1
  50              	.LVL5:
  51              		.loc 1 53 0 discriminator 3
  52 0012 9042     		cmp	r0, r2
  53 0014 F9D1     		bne	.L3
  54              	.LVL6:
  55              	.L1:
  56 0016 7047     		bx	lr
  57              	.LBE81:
ARM GAS  /tmp/ccCg7YAS.s 			page 2


  58              	.LBE80:
  59              		.cfi_endproc
  60              	.LFE36:
  61              		.cantunwind
  62              		.fnend
  63              		.size	_Z10psram_copymPch, .-_Z10psram_copymPch
  64              		.global	__aeabi_fsub
  65              		.global	__aeabi_fmul
  66              		.global	__aeabi_fadd
  67              		.global	__aeabi_i2f
  68              		.global	__aeabi_fcmpgt
  69              		.global	__aeabi_fcmplt
  70              		.section	.text._Z13calculate_pidv,"ax",%progbits
  71              		.align	2
  72              		.p2align 4,,15
  73              		.global	_Z13calculate_pidv
  74              		.thumb
  75              		.thumb_func
  76              		.type	_Z13calculate_pidv, %function
  77              	_Z13calculate_pidv:
  78              		.fnstart
  79              	.LFB37:
  80              		.loc 1 86 0
  81              		.cfi_startproc
  82              		@ args = 0, pretend = 0, frame = 0
  83              		@ frame_needed = 0, uses_anonymous_args = 0
  84 0000 2DE9F047 		push	{r4, r5, r6, r7, r8, r9, r10, lr}
  85              		.cfi_def_cfa_offset 32
  86              		.cfi_offset 4, -32
  87              		.cfi_offset 5, -28
  88              		.cfi_offset 6, -24
  89              		.cfi_offset 7, -20
  90              		.cfi_offset 8, -16
  91              		.cfi_offset 9, -12
  92              		.cfi_offset 10, -8
  93              		.cfi_offset 14, -4
  94              	.LBB82:
  95              		.loc 1 89 0
  96 0004 624B     		ldr	r3, .L38
  97 0006 DFF8C881 		ldr	r8, .L38+64
  98 000a 1968     		ldr	r1, [r3]	@ float
  99 000c D8F80800 		ldr	r0, [r8, #8]	@ float
 100 0010 FFF7FEFF 		bl	__aeabi_fsub
 101              	.LVL7:
 102              		.loc 1 90 0
 103 0014 5F4B     		ldr	r3, .L38+4
 104 0016 604F     		ldr	r7, .L38+8
 105 0018 1968     		ldr	r1, [r3]	@ float
 106              		.loc 1 89 0
 107 001a 0646     		mov	r6, r0
 108              	.LVL8:
 109              		.loc 1 90 0
 110 001c FFF7FEFF 		bl	__aeabi_fmul
 111              	.LVL9:
 112 0020 3968     		ldr	r1, [r7]	@ float
 113 0022 FFF7FEFF 		bl	__aeabi_fadd
 114              	.LVL10:
ARM GAS  /tmp/ccCg7YAS.s 			page 3


 115              		.loc 1 92 0
 116 0026 5D4B     		ldr	r3, .L38+12
 117              		.loc 1 90 0
 118 0028 0446     		mov	r4, r0
 119              		.loc 1 92 0
 120 002a D3F80090 		ldr	r9, [r3]
 121              		.loc 1 90 0
 122 002e 3860     		str	r0, [r7]	@ float
 123              		.loc 1 92 0
 124 0030 4846     		mov	r0, r9
 125 0032 FFF7FEFF 		bl	__aeabi_i2f
 126              	.LVL11:
 127 0036 0546     		mov	r5, r0
 128 0038 2046     		mov	r0, r4
 129 003a 2946     		mov	r1, r5
 130 003c FFF7FEFF 		bl	__aeabi_fcmpgt
 131              	.LVL12:
 132 0040 0028     		cmp	r0, #0
 133 0042 6ED0     		beq	.L30
 134 0044 2C46     		mov	r4, r5
 135              		.loc 1 92 0 is_stmt 0 discriminator 1
 136 0046 3D60     		str	r5, [r7]	@ float
 137              	.L10:
 138              		.loc 1 95 0 is_stmt 1
 139 0048 554B     		ldr	r3, .L38+16
 140 004a 3046     		mov	r0, r6
 141 004c 1968     		ldr	r1, [r3]	@ float
 142 004e FFF7FEFF 		bl	__aeabi_fmul
 143              	.LVL13:
 144 0052 2146     		mov	r1, r4
 145 0054 FFF7FEFF 		bl	__aeabi_fadd
 146              	.LVL14:
 147 0058 524F     		ldr	r7, .L38+20
 148 005a 0446     		mov	r4, r0
 149 005c 3968     		ldr	r1, [r7]	@ float
 150 005e 3046     		mov	r0, r6
 151 0060 FFF7FEFF 		bl	__aeabi_fsub
 152              	.LVL15:
 153 0064 504B     		ldr	r3, .L38+24
 154 0066 1968     		ldr	r1, [r3]	@ float
 155 0068 FFF7FEFF 		bl	__aeabi_fmul
 156              	.LVL16:
 157 006c 0146     		mov	r1, r0
 158 006e 2046     		mov	r0, r4
 159 0070 FFF7FEFF 		bl	__aeabi_fadd
 160              	.LVL17:
 161 0074 0446     		mov	r4, r0
 162              		.loc 1 97 0
 163 0076 2846     		mov	r0, r5
 164 0078 2146     		mov	r1, r4
 165 007a FFF7FEFF 		bl	__aeabi_fcmplt
 166              	.LVL18:
 167 007e 0028     		cmp	r0, #0
 168 0080 6DD0     		beq	.L31
 169              		.loc 1 97 0 is_stmt 0 discriminator 1
 170 0082 4A4B     		ldr	r3, .L38+28
 171 0084 1D60     		str	r5, [r3]	@ float
ARM GAS  /tmp/ccCg7YAS.s 			page 4


 172              	.L14:
 173              		.loc 1 103 0 is_stmt 1
 174 0086 4A4B     		ldr	r3, .L38+32
 175              		.loc 1 100 0
 176 0088 3E60     		str	r6, [r7]	@ float
 177              		.loc 1 103 0
 178 008a 1968     		ldr	r1, [r3]	@ float
 179 008c D8F80400 		ldr	r0, [r8, #4]	@ float
 180 0090 FFF7FEFF 		bl	__aeabi_fsub
 181              	.LVL19:
 182              		.loc 1 104 0
 183 0094 474B     		ldr	r3, .L38+36
 184 0096 484F     		ldr	r7, .L38+40
 185 0098 1968     		ldr	r1, [r3]	@ float
 186              		.loc 1 103 0
 187 009a 0646     		mov	r6, r0
 188              	.LVL20:
 189              		.loc 1 104 0
 190 009c FFF7FEFF 		bl	__aeabi_fmul
 191              	.LVL21:
 192 00a0 3968     		ldr	r1, [r7]	@ float
 193 00a2 FFF7FEFF 		bl	__aeabi_fadd
 194              	.LVL22:
 195              		.loc 1 106 0
 196 00a6 454B     		ldr	r3, .L38+44
 197              		.loc 1 104 0
 198 00a8 0446     		mov	r4, r0
 199              		.loc 1 106 0
 200 00aa D3F80080 		ldr	r8, [r3]
 201              		.loc 1 104 0
 202 00ae 3860     		str	r0, [r7]	@ float
 203              		.loc 1 106 0
 204 00b0 4046     		mov	r0, r8
 205 00b2 FFF7FEFF 		bl	__aeabi_i2f
 206              	.LVL23:
 207 00b6 0546     		mov	r5, r0
 208 00b8 2046     		mov	r0, r4
 209 00ba 2946     		mov	r1, r5
 210 00bc FFF7FEFF 		bl	__aeabi_fcmpgt
 211              	.LVL24:
 212 00c0 0028     		cmp	r0, #0
 213 00c2 3DD0     		beq	.L32
 214 00c4 2C46     		mov	r4, r5
 215              		.loc 1 106 0 is_stmt 0 discriminator 1
 216 00c6 3D60     		str	r5, [r7]	@ float
 217              	.L18:
 218              		.loc 1 109 0 is_stmt 1
 219 00c8 3D4B     		ldr	r3, .L38+48
 220 00ca 3046     		mov	r0, r6
 221 00cc 1968     		ldr	r1, [r3]	@ float
 222 00ce FFF7FEFF 		bl	__aeabi_fmul
 223              	.LVL25:
 224 00d2 2146     		mov	r1, r4
 225 00d4 FFF7FEFF 		bl	__aeabi_fadd
 226              	.LVL26:
 227 00d8 3A4F     		ldr	r7, .L38+52
 228 00da 0446     		mov	r4, r0
ARM GAS  /tmp/ccCg7YAS.s 			page 5


 229 00dc 3968     		ldr	r1, [r7]	@ float
 230 00de 3046     		mov	r0, r6
 231 00e0 FFF7FEFF 		bl	__aeabi_fsub
 232              	.LVL27:
 233 00e4 384B     		ldr	r3, .L38+56
 234 00e6 1968     		ldr	r1, [r3]	@ float
 235 00e8 FFF7FEFF 		bl	__aeabi_fmul
 236              	.LVL28:
 237 00ec 0146     		mov	r1, r0
 238 00ee 2046     		mov	r0, r4
 239 00f0 FFF7FEFF 		bl	__aeabi_fadd
 240              	.LVL29:
 241 00f4 0446     		mov	r4, r0
 242              		.loc 1 111 0
 243 00f6 2846     		mov	r0, r5
 244 00f8 2146     		mov	r1, r4
 245 00fa FFF7FEFF 		bl	__aeabi_fcmplt
 246              	.LVL30:
 247 00fe 0028     		cmp	r0, #0
 248 0100 40D1     		bne	.L35
 249              		.loc 1 112 0
 250 0102 C8F10000 		rsb	r0, r8, #0
 251 0106 FFF7FEFF 		bl	__aeabi_i2f
 252              	.LVL31:
 253 010a 0546     		mov	r5, r0
 254 010c 2046     		mov	r0, r4
 255 010e 2946     		mov	r1, r5
 256 0110 FFF7FEFF 		bl	__aeabi_fcmplt
 257              	.LVL32:
 258 0114 2D4B     		ldr	r3, .L38+60
 259 0116 0028     		cmp	r0, #0
 260 0118 30D0     		beq	.L36
 261              		.loc 1 112 0 is_stmt 0 discriminator 1
 262 011a 1D60     		str	r5, [r3]	@ float
 263              		.loc 1 114 0 is_stmt 1 discriminator 1
 264 011c 3E60     		str	r6, [r7]	@ float
 265 011e BDE8F087 		pop	{r4, r5, r6, r7, r8, r9, r10, pc}
 266              	.LVL33:
 267              	.L30:
 268              		.loc 1 93 0
 269 0122 C9F10000 		rsb	r0, r9, #0
 270 0126 FFF7FEFF 		bl	__aeabi_i2f
 271              	.LVL34:
 272 012a 8246     		mov	r10, r0
 273 012c 2046     		mov	r0, r4
 274 012e 5146     		mov	r1, r10
 275 0130 FFF7FEFF 		bl	__aeabi_fcmplt
 276              	.LVL35:
 277 0134 0028     		cmp	r0, #0
 278 0136 87D0     		beq	.L10
 279 0138 5446     		mov	r4, r10
 280              		.loc 1 93 0 is_stmt 0 discriminator 1
 281 013a C7F800A0 		str	r10, [r7]	@ float
 282 013e 83E7     		b	.L10
 283              	.L32:
 284              		.loc 1 107 0 is_stmt 1
 285 0140 C8F10000 		rsb	r0, r8, #0
ARM GAS  /tmp/ccCg7YAS.s 			page 6


 286 0144 FFF7FEFF 		bl	__aeabi_i2f
 287              	.LVL36:
 288 0148 8146     		mov	r9, r0
 289 014a 2046     		mov	r0, r4
 290 014c 4946     		mov	r1, r9
 291 014e FFF7FEFF 		bl	__aeabi_fcmplt
 292              	.LVL37:
 293 0152 0028     		cmp	r0, #0
 294 0154 B8D0     		beq	.L18
 295 0156 4C46     		mov	r4, r9
 296              		.loc 1 107 0 is_stmt 0 discriminator 1
 297 0158 C7F80090 		str	r9, [r7]	@ float
 298 015c B4E7     		b	.L18
 299              	.L31:
 300              		.loc 1 98 0 is_stmt 1
 301 015e C9F10000 		rsb	r0, r9, #0
 302 0162 FFF7FEFF 		bl	__aeabi_i2f
 303              	.LVL38:
 304 0166 0546     		mov	r5, r0
 305 0168 2046     		mov	r0, r4
 306 016a 2946     		mov	r1, r5
 307 016c FFF7FEFF 		bl	__aeabi_fcmplt
 308              	.LVL39:
 309 0170 0E4B     		ldr	r3, .L38+28
 310 0172 08B1     		cbz	r0, .L37
 311              		.loc 1 98 0 is_stmt 0 discriminator 1
 312 0174 1D60     		str	r5, [r3]	@ float
 313 0176 86E7     		b	.L14
 314              	.L37:
 315              		.loc 1 95 0 is_stmt 1
 316 0178 1C60     		str	r4, [r3]	@ float
 317 017a 84E7     		b	.L14
 318              	.L36:
 319              		.loc 1 109 0
 320 017c 1C60     		str	r4, [r3]	@ float
 321              		.loc 1 114 0
 322 017e 3E60     		str	r6, [r7]	@ float
 323 0180 BDE8F087 		pop	{r4, r5, r6, r7, r8, r9, r10, pc}
 324              	.LVL40:
 325              	.L35:
 326              		.loc 1 111 0 discriminator 1
 327 0184 114B     		ldr	r3, .L38+60
 328              		.loc 1 114 0 discriminator 1
 329 0186 3E60     		str	r6, [r7]	@ float
 330              		.loc 1 111 0 discriminator 1
 331 0188 1D60     		str	r5, [r3]	@ float
 332              		.loc 1 114 0 discriminator 1
 333 018a BDE8F087 		pop	{r4, r5, r6, r7, r8, r9, r10, pc}
 334              	.LVL41:
 335              	.L39:
 336 018e 00BF     		.align	2
 337              	.L38:
 338 0190 00000000 		.word	.LANCHOR1
 339 0194 00000000 		.word	.LANCHOR2
 340 0198 00000000 		.word	.LANCHOR3
 341 019c 00000000 		.word	.LANCHOR4
 342 01a0 00000000 		.word	.LANCHOR5
ARM GAS  /tmp/ccCg7YAS.s 			page 7


 343 01a4 00000000 		.word	.LANCHOR6
 344 01a8 00000000 		.word	.LANCHOR7
 345 01ac 00000000 		.word	.LANCHOR8
 346 01b0 00000000 		.word	.LANCHOR9
 347 01b4 00000000 		.word	.LANCHOR10
 348 01b8 00000000 		.word	.LANCHOR11
 349 01bc 00000000 		.word	.LANCHOR12
 350 01c0 00000000 		.word	.LANCHOR13
 351 01c4 00000000 		.word	.LANCHOR14
 352 01c8 00000000 		.word	.LANCHOR15
 353 01cc 00000000 		.word	.LANCHOR16
 354 01d0 00000000 		.word	.LANCHOR0
 355              	.LBE82:
 356              		.cfi_endproc
 357              	.LFE37:
 358              		.cantunwind
 359              		.fnend
 360              		.size	_Z13calculate_pidv, .-_Z13calculate_pidv
 361              		.section	.text._Z7getCharmc,"ax",%progbits
 362              		.align	2
 363              		.p2align 4,,15
 364              		.global	_Z7getCharmc
 365              		.thumb
 366              		.thumb_func
 367              		.type	_Z7getCharmc, %function
 368              	_Z7getCharmc:
 369              		.fnstart
 370              	.LFB38:
 371              		.loc 1 118 0
 372              		.cfi_startproc
 373              		@ args = 0, pretend = 0, frame = 0
 374              		@ frame_needed = 0, uses_anonymous_args = 0
 375              		@ link register save eliminated.
 376              	.LVL42:
 377              	.LBB83:
 378              		.loc 1 121 0
 379 0000 0229     		cmp	r1, #2
 380 0002 0AD0     		beq	.L42
 381 0004 0329     		cmp	r1, #3
 382 0006 06D0     		beq	.L43
 383 0008 0129     		cmp	r1, #1
 384 000a 01D0     		beq	.L47
 385              		.loc 1 119 0
 386 000c 0020     		movs	r0, #0
 387              	.LVL43:
 388              	.LBE83:
 389              		.loc 1 138 0
 390 000e 7047     		bx	lr
 391              	.LVL44:
 392              	.L47:
 393              	.LBB84:
 394              		.loc 1 124 0
 395 0010 C0F30740 		ubfx	r0, r0, #16, #8
 396              	.LVL45:
 397              		.loc 1 126 0
 398 0014 7047     		bx	lr
 399              	.LVL46:
ARM GAS  /tmp/ccCg7YAS.s 			page 8


 400              	.L43:
 401              		.loc 1 131 0
 402 0016 C0B2     		uxtb	r0, r0
 403              	.LVL47:
 404              		.loc 1 132 0
 405 0018 7047     		bx	lr
 406              	.LVL48:
 407              	.L42:
 408              		.loc 1 128 0
 409 001a C0F30720 		ubfx	r0, r0, #8, #8
 410              	.LVL49:
 411              		.loc 1 129 0
 412 001e 7047     		bx	lr
 413              	.LBE84:
 414              		.cfi_endproc
 415              	.LFE38:
 416              		.cantunwind
 417              		.fnend
 418              		.size	_Z7getCharmc, .-_Z7getCharmc
 419              		.section	.text._Z10set_periodP7PWMDataccc,"ax",%progbits
 420              		.align	2
 421              		.p2align 4,,15
 422              		.global	_Z10set_periodP7PWMDataccc
 423              		.thumb
 424              		.thumb_func
 425              		.type	_Z10set_periodP7PWMDataccc, %function
 426              	_Z10set_periodP7PWMDataccc:
 427              		.fnstart
 428              	.LFB39:
 429              		.loc 1 141 0
 430              		.cfi_startproc
 431              		@ args = 0, pretend = 0, frame = 0
 432              		@ frame_needed = 0, uses_anonymous_args = 0
 433              		@ link register save eliminated.
 434              	.LVL50:
 435 0000 30B4     		push	{r4, r5}
 436              		.cfi_def_cfa_offset 8
 437              		.cfi_offset 4, -8
 438              		.cfi_offset 5, -4
 439 0002 0446     		mov	r4, r0
 440              		.loc 1 144 0
 441 0004 064D     		ldr	r5, .L52
 442              		.loc 1 143 0
 443 0006 4270     		strb	r2, [r0, #1]
 444              		.loc 1 142 0
 445 0008 0170     		strb	r1, [r0]
 446              		.loc 1 144 0
 447 000a 8370     		strb	r3, [r0, #2]
 448              	.LVL51:
 449 000c 00F10F02 		add	r2, r0, #15
 450              	.LVL52:
 451              	.L49:
 452              	.LBB85:
 453              	.LBB86:
 454              	.LBB87:
 455              		.loc 1 54 0
 456 0010 14F8013B 		ldrb	r3, [r4], #1	@ zero_extendqisi2
ARM GAS  /tmp/ccCg7YAS.s 			page 9


 457              		.loc 1 53 0
 458 0014 9442     		cmp	r4, r2
 459              		.loc 1 54 0
 460 0016 05F8013F 		strb	r3, [r5, #1]!
 461              	.LVL53:
 462              		.loc 1 53 0
 463 001a F9D1     		bne	.L49
 464              	.LBE87:
 465              	.LBE86:
 466              	.LBE85:
 467              		.loc 1 146 0
 468 001c 30BC     		pop	{r4, r5}
 469              		.cfi_restore 5
 470              		.cfi_restore 4
 471              		.cfi_def_cfa_offset 0
 472              	.LVL54:
 473 001e 7047     		bx	lr
 474              	.L53:
 475              		.align	2
 476              	.L52:
 477 0020 FF030063 		.word	1660945407
 478              		.cfi_endproc
 479              	.LFE39:
 480              		.cantunwind
 481              		.fnend
 482              		.size	_Z10set_periodP7PWMDataccc, .-_Z10set_periodP7PWMDataccc
 483              		.section	.text._Z8set_dutyP7PWMDatacccc,"ax",%progbits
 484              		.align	2
 485              		.p2align 4,,15
 486              		.global	_Z8set_dutyP7PWMDatacccc
 487              		.thumb
 488              		.thumb_func
 489              		.type	_Z8set_dutyP7PWMDatacccc, %function
 490              	_Z8set_dutyP7PWMDatacccc:
 491              		.fnstart
 492              	.LFB40:
 493              		.loc 1 147 0
 494              		.cfi_startproc
 495              		@ args = 4, pretend = 0, frame = 0
 496              		@ frame_needed = 0, uses_anonymous_args = 0
 497              		@ link register save eliminated.
 498              	.LVL55:
 499 0000 30B4     		push	{r4, r5}
 500              		.cfi_def_cfa_offset 8
 501              		.cfi_offset 4, -8
 502              		.cfi_offset 5, -4
 503              		.loc 1 148 0
 504 0002 0139     		subs	r1, r1, #1
 505              	.LVL56:
 506              		.loc 1 147 0
 507 0004 9DF80850 		ldrb	r5, [sp, #8]	@ zero_extendqisi2
 508              		.loc 1 148 0
 509 0008 0329     		cmp	r1, #3
 510 000a 3FD8     		bhi	.L55
 511 000c DFE801F0 		tbb	[pc, r1]
 512              	.L57:
 513 0010 20       		.byte	(.L56-.L57)/2
ARM GAS  /tmp/ccCg7YAS.s 			page 10


 514 0011 2F       		.byte	(.L58-.L57)/2
 515 0012 11       		.byte	(.L59-.L57)/2
 516 0013 02       		.byte	(.L60-.L57)/2
 517              		.p2align 1
 518              	.L60:
 519 0014 0146     		mov	r1, r0
 520              		.loc 1 170 0
 521 0016 254C     		ldr	r4, .L73
 522              		.loc 1 168 0
 523 0018 0273     		strb	r2, [r0, #12]
 524              		.loc 1 169 0
 525 001a 4373     		strb	r3, [r0, #13]
 526              		.loc 1 170 0
 527 001c 8573     		strb	r5, [r0, #14]
 528              	.LVL57:
 529 001e 00F10F02 		add	r2, r0, #15
 530              	.LVL58:
 531              	.L65:
 532              	.LBB88:
 533              	.LBB89:
 534              	.LBB90:
 535              		.loc 1 54 0
 536 0022 11F8013B 		ldrb	r3, [r1], #1	@ zero_extendqisi2
 537              		.loc 1 53 0
 538 0026 9142     		cmp	r1, r2
 539              		.loc 1 54 0
 540 0028 04F8013F 		strb	r3, [r4, #1]!
 541              	.LVL59:
 542              		.loc 1 53 0
 543 002c F9D1     		bne	.L65
 544              	.LBE90:
 545              	.LBE89:
 546              	.LBE88:
 547              		.loc 1 179 0
 548 002e 30BC     		pop	{r4, r5}
 549              		.cfi_remember_state
 550              		.cfi_restore 5
 551              		.cfi_restore 4
 552              		.cfi_def_cfa_offset 0
 553              	.LVL60:
 554 0030 7047     		bx	lr
 555              	.LVL61:
 556              	.L59:
 557              		.cfi_restore_state
 558 0032 0146     		mov	r1, r0
 559              		.loc 1 164 0
 560 0034 1D4C     		ldr	r4, .L73
 561              		.loc 1 162 0
 562 0036 4272     		strb	r2, [r0, #9]
 563              		.loc 1 163 0
 564 0038 8372     		strb	r3, [r0, #10]
 565              		.loc 1 164 0
 566 003a C572     		strb	r5, [r0, #11]
 567              	.LVL62:
 568 003c 00F10F02 		add	r2, r0, #15
 569              	.LVL63:
 570              	.L64:
ARM GAS  /tmp/ccCg7YAS.s 			page 11


 571              	.LBB91:
 572              	.LBB92:
 573              	.LBB93:
 574              		.loc 1 54 0
 575 0040 11F8013B 		ldrb	r3, [r1], #1	@ zero_extendqisi2
 576              		.loc 1 53 0
 577 0044 9142     		cmp	r1, r2
 578              		.loc 1 54 0
 579 0046 04F8013F 		strb	r3, [r4, #1]!
 580              	.LVL64:
 581              		.loc 1 53 0
 582 004a F9D1     		bne	.L64
 583              	.LBE93:
 584              	.LBE92:
 585              	.LBE91:
 586              		.loc 1 179 0
 587 004c 30BC     		pop	{r4, r5}
 588              		.cfi_remember_state
 589              		.cfi_restore 4
 590              		.cfi_restore 5
 591              		.cfi_def_cfa_offset 0
 592              	.LVL65:
 593 004e 7047     		bx	lr
 594              	.LVL66:
 595              	.L56:
 596              		.cfi_restore_state
 597 0050 0146     		mov	r1, r0
 598              		.loc 1 152 0
 599 0052 164C     		ldr	r4, .L73
 600              		.loc 1 150 0
 601 0054 C270     		strb	r2, [r0, #3]
 602              		.loc 1 151 0
 603 0056 0371     		strb	r3, [r0, #4]
 604              		.loc 1 152 0
 605 0058 4571     		strb	r5, [r0, #5]
 606              	.LVL67:
 607 005a 00F10F02 		add	r2, r0, #15
 608              	.LVL68:
 609              	.L61:
 610              	.LBB94:
 611              	.LBB95:
 612              	.LBB96:
 613              		.loc 1 54 0
 614 005e 11F8013B 		ldrb	r3, [r1], #1	@ zero_extendqisi2
 615              		.loc 1 53 0
 616 0062 9142     		cmp	r1, r2
 617              		.loc 1 54 0
 618 0064 04F8013F 		strb	r3, [r4, #1]!
 619              	.LVL69:
 620              		.loc 1 53 0
 621 0068 F9D1     		bne	.L61
 622              	.LBE96:
 623              	.LBE95:
 624              	.LBE94:
 625              		.loc 1 179 0
 626 006a 30BC     		pop	{r4, r5}
 627              		.cfi_remember_state
ARM GAS  /tmp/ccCg7YAS.s 			page 12


 628              		.cfi_restore 4
 629              		.cfi_restore 5
 630              		.cfi_def_cfa_offset 0
 631              	.LVL70:
 632 006c 7047     		bx	lr
 633              	.LVL71:
 634              	.L58:
 635              		.cfi_restore_state
 636 006e 0146     		mov	r1, r0
 637              		.loc 1 158 0
 638 0070 0E4C     		ldr	r4, .L73
 639              		.loc 1 156 0
 640 0072 8271     		strb	r2, [r0, #6]
 641              		.loc 1 157 0
 642 0074 C371     		strb	r3, [r0, #7]
 643              		.loc 1 158 0
 644 0076 0572     		strb	r5, [r0, #8]
 645              	.LVL72:
 646 0078 00F10F02 		add	r2, r0, #15
 647              	.LVL73:
 648              	.L62:
 649              	.LBB97:
 650              	.LBB98:
 651              	.LBB99:
 652              		.loc 1 54 0
 653 007c 11F8013B 		ldrb	r3, [r1], #1	@ zero_extendqisi2
 654              		.loc 1 53 0
 655 0080 9142     		cmp	r1, r2
 656              		.loc 1 54 0
 657 0082 04F8013F 		strb	r3, [r4, #1]!
 658              	.LVL74:
 659              		.loc 1 53 0
 660 0086 F9D1     		bne	.L62
 661              	.LBE99:
 662              	.LBE98:
 663              	.LBE97:
 664              		.loc 1 179 0
 665 0088 30BC     		pop	{r4, r5}
 666              		.cfi_restore 4
 667              		.cfi_restore 5
 668              		.cfi_def_cfa_offset 0
 669              	.LVL75:
 670 008a 7047     		bx	lr
 671              	.LVL76:
 672              	.L55:
 673 008c 0346     		mov	r3, r0
 674              	.LVL77:
 675              		.loc 1 174 0
 676 008e 0021     		movs	r1, #0
 677              		.loc 1 176 0
 678 0090 064A     		ldr	r2, .L73
 679              	.LVL78:
 680 0092 00F10F04 		add	r4, r0, #15
 681              		.loc 1 174 0
 682 0096 C170     		strb	r1, [r0, #3]
 683              		.loc 1 175 0
 684 0098 0171     		strb	r1, [r0, #4]
ARM GAS  /tmp/ccCg7YAS.s 			page 13


 685              		.loc 1 176 0
 686 009a 4171     		strb	r1, [r0, #5]
 687              	.LVL79:
 688              	.L66:
 689              	.LBB100:
 690              	.LBB101:
 691              	.LBB102:
 692              		.loc 1 54 0
 693 009c 13F8011B 		ldrb	r1, [r3], #1	@ zero_extendqisi2
 694              		.loc 1 53 0
 695 00a0 A342     		cmp	r3, r4
 696              		.loc 1 54 0
 697 00a2 02F8011F 		strb	r1, [r2, #1]!
 698              	.LVL80:
 699              		.loc 1 53 0
 700 00a6 F9D1     		bne	.L66
 701              	.LBE102:
 702              	.LBE101:
 703              	.LBE100:
 704              		.loc 1 179 0
 705 00a8 30BC     		pop	{r4, r5}
 706 00aa 7047     		bx	lr
 707              	.L74:
 708              		.align	2
 709              	.L73:
 710 00ac FF030063 		.word	1660945407
 711              		.cfi_endproc
 712              	.LFE40:
 713              		.cantunwind
 714              		.fnend
 715              		.size	_Z8set_dutyP7PWMDatacccc, .-_Z8set_dutyP7PWMDatacccc
 716              		.section	.text._Z10initMotorsP7PWMData,"ax",%progbits
 717              		.align	2
 718              		.p2align 4,,15
 719              		.global	_Z10initMotorsP7PWMData
 720              		.thumb
 721              		.thumb_func
 722              		.type	_Z10initMotorsP7PWMData, %function
 723              	_Z10initMotorsP7PWMData:
 724              		.fnstart
 725              	.LFB41:
 726              		.loc 1 183 0
 727              		.cfi_startproc
 728              		@ args = 0, pretend = 0, frame = 0
 729              		@ frame_needed = 0, uses_anonymous_args = 0
 730              	.LVL81:
 731 0000 30B5     		push	{r4, r5, lr}
 732              		.cfi_def_cfa_offset 12
 733              		.cfi_offset 4, -12
 734              		.cfi_offset 5, -8
 735              		.cfi_offset 14, -4
 736 0002 0446     		mov	r4, r0
 737              	.LVL82:
 738 0004 0346     		mov	r3, r0
 739              	.LBB103:
 740              	.LBB104:
 741              		.loc 1 142 0
ARM GAS  /tmp/ccCg7YAS.s 			page 14


 742 0006 3D25     		movs	r5, #61
 743              		.loc 1 143 0
 744 0008 0920     		movs	r0, #9
 745              	.LVL83:
 746              		.loc 1 144 0
 747 000a 0021     		movs	r1, #0
 748 000c 184A     		ldr	r2, .L79
 749              		.loc 1 143 0
 750 000e 6070     		strb	r0, [r4, #1]
 751              	.LBE104:
 752              	.LBE103:
 753              		.loc 1 183 0
 754 0010 83B0     		sub	sp, sp, #12
 755              		.cfi_def_cfa_offset 24
 756              	.LBB109:
 757              	.LBB108:
 758              		.loc 1 142 0
 759 0012 2570     		strb	r5, [r4]
 760              		.loc 1 144 0
 761 0014 A170     		strb	r1, [r4, #2]
 762              	.LVL84:
 763 0016 04F10F00 		add	r0, r4, #15
 764              	.LVL85:
 765              	.L76:
 766              	.LBB105:
 767              	.LBB106:
 768              	.LBB107:
 769              		.loc 1 54 0
 770 001a 13F8011B 		ldrb	r1, [r3], #1	@ zero_extendqisi2
 771              		.loc 1 53 0
 772 001e 8342     		cmp	r3, r0
 773              		.loc 1 54 0
 774 0020 02F8011F 		strb	r1, [r2, #1]!
 775              	.LVL86:
 776              		.loc 1 53 0
 777 0024 F9D1     		bne	.L76
 778              	.LBE107:
 779              	.LBE106:
 780              	.LBE105:
 781              	.LBE108:
 782              	.LBE109:
 783              		.loc 1 185 0
 784 0026 4025     		movs	r5, #64
 785 0028 2046     		mov	r0, r4
 786 002a 0095     		str	r5, [sp]
 787 002c 0121     		movs	r1, #1
 788 002e 0322     		movs	r2, #3
 789              	.LVL87:
 790 0030 0D23     		movs	r3, #13
 791 0032 FFF7FEFF 		bl	_Z8set_dutyP7PWMDatacccc
 792              	.LVL88:
 793              		.loc 1 186 0
 794 0036 2046     		mov	r0, r4
 795 0038 0095     		str	r5, [sp]
 796 003a 0221     		movs	r1, #2
 797 003c 0322     		movs	r2, #3
 798 003e 0D23     		movs	r3, #13
ARM GAS  /tmp/ccCg7YAS.s 			page 15


 799 0040 FFF7FEFF 		bl	_Z8set_dutyP7PWMDatacccc
 800              	.LVL89:
 801              		.loc 1 187 0
 802 0044 0321     		movs	r1, #3
 803 0046 0A46     		mov	r2, r1
 804 0048 2046     		mov	r0, r4
 805 004a 0095     		str	r5, [sp]
 806 004c 0D23     		movs	r3, #13
 807 004e FFF7FEFF 		bl	_Z8set_dutyP7PWMDatacccc
 808              	.LVL90:
 809              		.loc 1 188 0
 810 0052 2046     		mov	r0, r4
 811 0054 0095     		str	r5, [sp]
 812 0056 0421     		movs	r1, #4
 813 0058 0322     		movs	r2, #3
 814 005a 0D23     		movs	r3, #13
 815 005c FFF7FEFF 		bl	_Z8set_dutyP7PWMDatacccc
 816              	.LVL91:
 817              		.loc 1 189 0
 818 0060 40F6B830 		movw	r0, #3000
 819              		.loc 1 190 0
 820 0064 03B0     		add	sp, sp, #12
 821              		.cfi_def_cfa_offset 12
 822              		@ sp needed
 823 0066 BDE83040 		pop	{r4, r5, lr}
 824              		.cfi_restore 14
 825              		.cfi_restore 5
 826              		.cfi_restore 4
 827              		.cfi_def_cfa_offset 0
 828              	.LVL92:
 829              		.loc 1 189 0
 830 006a FFF7FEBF 		b	chThdSleep
 831              	.LVL93:
 832              	.L80:
 833 006e 00BF     		.align	2
 834              	.L79:
 835 0070 FF030063 		.word	1660945407
 836              		.cfi_endproc
 837              	.LFE41:
 838              		.cantunwind
 839              		.fnend
 840              		.size	_Z10initMotorsP7PWMData, .-_Z10initMotorsP7PWMData
 841              		.section	.text._Z8plusDutyP7PWMDatai,"ax",%progbits
 842              		.align	2
 843              		.p2align 4,,15
 844              		.global	_Z8plusDutyP7PWMDatai
 845              		.thumb
 846              		.thumb_func
 847              		.type	_Z8plusDutyP7PWMDatai, %function
 848              	_Z8plusDutyP7PWMDatai:
 849              		.fnstart
 850              	.LFB42:
 851              		.loc 1 193 0
 852              		.cfi_startproc
 853              		@ args = 0, pretend = 0, frame = 0
 854              		@ frame_needed = 0, uses_anonymous_args = 0
 855              	.LVL94:
ARM GAS  /tmp/ccCg7YAS.s 			page 16


 856 0000 00B5     		push	{lr}
 857              		.cfi_def_cfa_offset 4
 858              		.cfi_offset 14, -4
 859              	.LBB110:
 860              		.loc 1 194 0
 861 0002 5F4B     		ldr	r3, .L107
 862              	.LBE110:
 863              		.loc 1 193 0
 864 0004 83B0     		sub	sp, sp, #12
 865              		.cfi_def_cfa_offset 16
 866              	.LBB111:
 867              		.loc 1 194 0
 868 0006 1B68     		ldr	r3, [r3]
 869              		.loc 1 195 0
 870 0008 93F8F130 		ldrb	r3, [r3, #241]	@ zero_extendqisi2
 871 000c 142B     		cmp	r3, #20
 872 000e 0CD8     		bhi	.L82
 873 0010 DFE803F0 		tbb	[pc, r3]
 874              	.L84:
 875 0014 0B       		.byte	(.L82-.L84)/2
 876 0015 AD       		.byte	(.L85-.L84)/2
 877 0016 A5       		.byte	(.L86-.L84)/2
 878 0017 9D       		.byte	(.L87-.L84)/2
 879 0018 95       		.byte	(.L88-.L84)/2
 880 0019 8D       		.byte	(.L89-.L84)/2
 881 001a 85       		.byte	(.L90-.L84)/2
 882 001b 7D       		.byte	(.L91-.L84)/2
 883 001c 75       		.byte	(.L92-.L84)/2
 884 001d 6D       		.byte	(.L93-.L84)/2
 885 001e 65       		.byte	(.L94-.L84)/2
 886 001f 5D       		.byte	(.L95-.L84)/2
 887 0020 55       		.byte	(.L96-.L84)/2
 888 0021 4D       		.byte	(.L97-.L84)/2
 889 0022 45       		.byte	(.L98-.L84)/2
 890 0023 3D       		.byte	(.L99-.L84)/2
 891 0024 35       		.byte	(.L100-.L84)/2
 892 0025 2D       		.byte	(.L101-.L84)/2
 893 0026 25       		.byte	(.L102-.L84)/2
 894 0027 1D       		.byte	(.L103-.L84)/2
 895 0028 15       		.byte	(.L104-.L84)/2
 896 0029 00       		.p2align 1
 897              	.L82:
 898              		.loc 1 217 0
 899 002a 4023     		movs	r3, #64
 900 002c 0093     		str	r3, [sp]
 901              	.LVL95:
 902 002e C9B2     		uxtb	r1, r1
 903              	.LVL96:
 904 0030 0322     		movs	r2, #3
 905 0032 0D23     		movs	r3, #13
 906 0034 FFF7FEFF 		bl	_Z8set_dutyP7PWMDatacccc
 907              	.LVL97:
 908              	.L81:
 909              	.LBE111:
 910              		.loc 1 219 0
 911 0038 03B0     		add	sp, sp, #12
 912              		.cfi_remember_state
ARM GAS  /tmp/ccCg7YAS.s 			page 17


 913              		.cfi_def_cfa_offset 4
 914              		@ sp needed
 915 003a 5DF804FB 		ldr	pc, [sp], #4
 916              	.LVL98:
 917              	.L104:
 918              		.cfi_restore_state
 919              	.LBB112:
 920              		.loc 1 216 0
 921 003e 8023     		movs	r3, #128
 922 0040 0093     		str	r3, [sp]
 923              	.LVL99:
 924 0042 C9B2     		uxtb	r1, r1
 925              	.LVL100:
 926 0044 0622     		movs	r2, #6
 927 0046 1A23     		movs	r3, #26
 928 0048 FFF7FEFF 		bl	_Z8set_dutyP7PWMDatacccc
 929              	.LVL101:
 930 004c F4E7     		b	.L81
 931              	.LVL102:
 932              	.L103:
 933              		.loc 1 215 0
 934 004e 7023     		movs	r3, #112
 935 0050 0093     		str	r3, [sp]
 936              	.LVL103:
 937 0052 C9B2     		uxtb	r1, r1
 938              	.LVL104:
 939 0054 0522     		movs	r2, #5
 940 0056 F323     		movs	r3, #243
 941 0058 FFF7FEFF 		bl	_Z8set_dutyP7PWMDatacccc
 942              	.LVL105:
 943 005c ECE7     		b	.L81
 944              	.LVL106:
 945              	.L102:
 946              		.loc 1 214 0
 947 005e 6023     		movs	r3, #96
 948 0060 0093     		str	r3, [sp]
 949              	.LVL107:
 950 0062 C9B2     		uxtb	r1, r1
 951              	.LVL108:
 952 0064 0522     		movs	r2, #5
 953 0066 CC23     		movs	r3, #204
 954 0068 FFF7FEFF 		bl	_Z8set_dutyP7PWMDatacccc
 955              	.LVL109:
 956 006c E4E7     		b	.L81
 957              	.LVL110:
 958              	.L101:
 959              		.loc 1 213 0
 960 006e 5023     		movs	r3, #80
 961 0070 0093     		str	r3, [sp]
 962              	.LVL111:
 963 0072 C9B2     		uxtb	r1, r1
 964              	.LVL112:
 965 0074 0522     		movs	r2, #5
 966 0076 A523     		movs	r3, #165
 967 0078 FFF7FEFF 		bl	_Z8set_dutyP7PWMDatacccc
 968              	.LVL113:
 969 007c DCE7     		b	.L81
ARM GAS  /tmp/ccCg7YAS.s 			page 18


 970              	.LVL114:
 971              	.L100:
 972              		.loc 1 212 0
 973 007e 4023     		movs	r3, #64
 974 0080 0093     		str	r3, [sp]
 975              	.LVL115:
 976 0082 C9B2     		uxtb	r1, r1
 977              	.LVL116:
 978 0084 0522     		movs	r2, #5
 979 0086 7E23     		movs	r3, #126
 980 0088 FFF7FEFF 		bl	_Z8set_dutyP7PWMDatacccc
 981              	.LVL117:
 982 008c D4E7     		b	.L81
 983              	.LVL118:
 984              	.L99:
 985              		.loc 1 211 0
 986 008e 3023     		movs	r3, #48
 987 0090 0093     		str	r3, [sp]
 988              	.LVL119:
 989 0092 C9B2     		uxtb	r1, r1
 990              	.LVL120:
 991 0094 0522     		movs	r2, #5
 992 0096 5723     		movs	r3, #87
 993 0098 FFF7FEFF 		bl	_Z8set_dutyP7PWMDatacccc
 994              	.LVL121:
 995 009c CCE7     		b	.L81
 996              	.LVL122:
 997              	.L98:
 998              		.loc 1 210 0
 999 009e 2023     		movs	r3, #32
 1000 00a0 0093     		str	r3, [sp]
 1001              	.LVL123:
 1002 00a2 C9B2     		uxtb	r1, r1
 1003              	.LVL124:
 1004 00a4 0522     		movs	r2, #5
 1005 00a6 3023     		movs	r3, #48
 1006 00a8 FFF7FEFF 		bl	_Z8set_dutyP7PWMDatacccc
 1007              	.LVL125:
 1008 00ac C4E7     		b	.L81
 1009              	.LVL126:
 1010              	.L97:
 1011              		.loc 1 209 0
 1012 00ae 1023     		movs	r3, #16
 1013 00b0 0093     		str	r3, [sp]
 1014              	.LVL127:
 1015 00b2 C9B2     		uxtb	r1, r1
 1016              	.LVL128:
 1017 00b4 0522     		movs	r2, #5
 1018 00b6 0923     		movs	r3, #9
 1019 00b8 FFF7FEFF 		bl	_Z8set_dutyP7PWMDatacccc
 1020              	.LVL129:
 1021 00bc BCE7     		b	.L81
 1022              	.LVL130:
 1023              	.L96:
 1024              		.loc 1 208 0
 1025 00be 0023     		movs	r3, #0
 1026 00c0 0093     		str	r3, [sp]
ARM GAS  /tmp/ccCg7YAS.s 			page 19


 1027              	.LVL131:
 1028 00c2 C9B2     		uxtb	r1, r1
 1029              	.LVL132:
 1030 00c4 0422     		movs	r2, #4
 1031 00c6 E223     		movs	r3, #226
 1032 00c8 FFF7FEFF 		bl	_Z8set_dutyP7PWMDatacccc
 1033              	.LVL133:
 1034 00cc B4E7     		b	.L81
 1035              	.LVL134:
 1036              	.L95:
 1037              		.loc 1 207 0
 1038 00ce F023     		movs	r3, #240
 1039 00d0 0093     		str	r3, [sp]
 1040              	.LVL135:
 1041 00d2 C9B2     		uxtb	r1, r1
 1042              	.LVL136:
 1043 00d4 0422     		movs	r2, #4
 1044 00d6 BA23     		movs	r3, #186
 1045 00d8 FFF7FEFF 		bl	_Z8set_dutyP7PWMDatacccc
 1046              	.LVL137:
 1047 00dc ACE7     		b	.L81
 1048              	.LVL138:
 1049              	.L94:
 1050              		.loc 1 206 0
 1051 00de E023     		movs	r3, #224
 1052 00e0 0093     		str	r3, [sp]
 1053              	.LVL139:
 1054 00e2 C9B2     		uxtb	r1, r1
 1055              	.LVL140:
 1056 00e4 0422     		movs	r2, #4
 1057 00e6 9323     		movs	r3, #147
 1058 00e8 FFF7FEFF 		bl	_Z8set_dutyP7PWMDatacccc
 1059              	.LVL141:
 1060 00ec A4E7     		b	.L81
 1061              	.LVL142:
 1062              	.L93:
 1063              		.loc 1 205 0
 1064 00ee D023     		movs	r3, #208
 1065 00f0 0093     		str	r3, [sp]
 1066              	.LVL143:
 1067 00f2 C9B2     		uxtb	r1, r1
 1068              	.LVL144:
 1069 00f4 0422     		movs	r2, #4
 1070 00f6 6C23     		movs	r3, #108
 1071 00f8 FFF7FEFF 		bl	_Z8set_dutyP7PWMDatacccc
 1072              	.LVL145:
 1073 00fc 9CE7     		b	.L81
 1074              	.LVL146:
 1075              	.L92:
 1076              		.loc 1 204 0
 1077 00fe C023     		movs	r3, #192
 1078 0100 0093     		str	r3, [sp]
 1079              	.LVL147:
 1080 0102 C9B2     		uxtb	r1, r1
 1081              	.LVL148:
 1082 0104 0422     		movs	r2, #4
 1083 0106 4523     		movs	r3, #69
ARM GAS  /tmp/ccCg7YAS.s 			page 20


 1084 0108 FFF7FEFF 		bl	_Z8set_dutyP7PWMDatacccc
 1085              	.LVL149:
 1086 010c 94E7     		b	.L81
 1087              	.LVL150:
 1088              	.L91:
 1089              		.loc 1 203 0
 1090 010e B023     		movs	r3, #176
 1091 0110 0093     		str	r3, [sp]
 1092              	.LVL151:
 1093 0112 C9B2     		uxtb	r1, r1
 1094              	.LVL152:
 1095 0114 0422     		movs	r2, #4
 1096 0116 1E23     		movs	r3, #30
 1097 0118 FFF7FEFF 		bl	_Z8set_dutyP7PWMDatacccc
 1098              	.LVL153:
 1099 011c 8CE7     		b	.L81
 1100              	.LVL154:
 1101              	.L90:
 1102              		.loc 1 202 0
 1103 011e A023     		movs	r3, #160
 1104 0120 0093     		str	r3, [sp]
 1105              	.LVL155:
 1106 0122 C9B2     		uxtb	r1, r1
 1107              	.LVL156:
 1108 0124 0322     		movs	r2, #3
 1109 0126 F723     		movs	r3, #247
 1110 0128 FFF7FEFF 		bl	_Z8set_dutyP7PWMDatacccc
 1111              	.LVL157:
 1112 012c 84E7     		b	.L81
 1113              	.LVL158:
 1114              	.L89:
 1115              		.loc 1 201 0
 1116 012e 9023     		movs	r3, #144
 1117 0130 0093     		str	r3, [sp]
 1118              	.LVL159:
 1119 0132 C9B2     		uxtb	r1, r1
 1120              	.LVL160:
 1121 0134 0322     		movs	r2, #3
 1122 0136 D023     		movs	r3, #208
 1123 0138 FFF7FEFF 		bl	_Z8set_dutyP7PWMDatacccc
 1124              	.LVL161:
 1125 013c 7CE7     		b	.L81
 1126              	.LVL162:
 1127              	.L88:
 1128              		.loc 1 200 0
 1129 013e 8023     		movs	r3, #128
 1130 0140 0093     		str	r3, [sp]
 1131              	.LVL163:
 1132 0142 C9B2     		uxtb	r1, r1
 1133              	.LVL164:
 1134 0144 0322     		movs	r2, #3
 1135 0146 A923     		movs	r3, #169
 1136 0148 FFF7FEFF 		bl	_Z8set_dutyP7PWMDatacccc
 1137              	.LVL165:
 1138 014c 74E7     		b	.L81
 1139              	.LVL166:
 1140              	.L87:
ARM GAS  /tmp/ccCg7YAS.s 			page 21


 1141              		.loc 1 199 0
 1142 014e 7023     		movs	r3, #112
 1143 0150 0093     		str	r3, [sp]
 1144              	.LVL167:
 1145 0152 C9B2     		uxtb	r1, r1
 1146              	.LVL168:
 1147 0154 0322     		movs	r2, #3
 1148 0156 8223     		movs	r3, #130
 1149 0158 FFF7FEFF 		bl	_Z8set_dutyP7PWMDatacccc
 1150              	.LVL169:
 1151 015c 6CE7     		b	.L81
 1152              	.LVL170:
 1153              	.L86:
 1154              		.loc 1 198 0
 1155 015e 6023     		movs	r3, #96
 1156 0160 0093     		str	r3, [sp]
 1157              	.LVL171:
 1158 0162 C9B2     		uxtb	r1, r1
 1159              	.LVL172:
 1160 0164 0322     		movs	r2, #3
 1161 0166 5B23     		movs	r3, #91
 1162 0168 FFF7FEFF 		bl	_Z8set_dutyP7PWMDatacccc
 1163              	.LVL173:
 1164 016c 64E7     		b	.L81
 1165              	.LVL174:
 1166              	.L85:
 1167              		.loc 1 197 0
 1168 016e 5023     		movs	r3, #80
 1169 0170 0093     		str	r3, [sp]
 1170              	.LVL175:
 1171 0172 C9B2     		uxtb	r1, r1
 1172              	.LVL176:
 1173 0174 0322     		movs	r2, #3
 1174 0176 3423     		movs	r3, #52
 1175 0178 FFF7FEFF 		bl	_Z8set_dutyP7PWMDatacccc
 1176              	.LVL177:
 1177 017c 5CE7     		b	.L81
 1178              	.L108:
 1179 017e 00BF     		.align	2
 1180              	.L107:
 1181 0180 00000000 		.word	.LANCHOR17
 1182              	.LBE112:
 1183              		.cfi_endproc
 1184              	.LFE42:
 1185              		.cantunwind
 1186              		.fnend
 1187              		.size	_Z8plusDutyP7PWMDatai, .-_Z8plusDutyP7PWMDatai
 1188              		.global	__aeabi_f2d
 1189              		.global	__aeabi_dmul
 1190              		.global	__aeabi_ddiv
 1191              		.global	__aeabi_d2f
 1192              		.global	__aeabi_f2iz
 1193              		.section	.text._ZL9IMUThreadPv,"ax",%progbits
 1194              		.align	2
 1195              		.p2align 4,,15
 1196              		.thumb
 1197              		.thumb_func
ARM GAS  /tmp/ccCg7YAS.s 			page 22


 1198              		.type	_ZL9IMUThreadPv, %function
 1199              	_ZL9IMUThreadPv:
 1200              		.fnstart
 1201              	.LFB44:
 1202              		.loc 1 250 0
 1203              		.cfi_startproc
 1204              		@ args = 0, pretend = 0, frame = 200
 1205              		@ frame_needed = 0, uses_anonymous_args = 0
 1206              	.LVL178:
 1207 0000 2DE9F04F 		push	{r4, r5, r6, r7, r8, r9, r10, fp, lr}
 1208              		.save {r4, r5, r6, r7, r8, r9, r10, fp, lr}
 1209              		.cfi_def_cfa_offset 36
 1210              		.cfi_offset 4, -36
 1211              		.cfi_offset 5, -32
 1212              		.cfi_offset 6, -28
 1213              		.cfi_offset 7, -24
 1214              		.cfi_offset 8, -20
 1215              		.cfi_offset 9, -16
 1216              		.cfi_offset 10, -12
 1217              		.cfi_offset 11, -8
 1218              		.cfi_offset 14, -4
 1219              		.pad #212
 1220 0004 B5B0     		sub	sp, sp, #212
 1221              		.cfi_def_cfa_offset 248
 1222              	.LBB113:
 1223              		.loc 1 252 0
 1224 0006 12AF     		add	r7, sp, #72
 1225 0008 1C23     		movs	r3, #28
 1226 000a 0093     		str	r3, [sp]
 1227 000c AC49     		ldr	r1, .L120+8
 1228 000e 0122     		movs	r2, #1
 1229 0010 6A23     		movs	r3, #106
 1230 0012 3846     		mov	r0, r7
 1231              	.LVL179:
 1232 0014 FFF7FEFF 		bl	_ZN7LSM9DS1C1EPN7creator3I2CE14interface_modehh
 1233              	.LVL180:
 1234              		.loc 1 257 0
 1235 0018 3846     		mov	r0, r7
 1236 001a FFF7FEFF 		bl	_ZN7LSM9DS15beginEv
 1237              	.LVL181:
 1238              		.loc 1 259 0
 1239 001e 02A8     		add	r0, sp, #8
 1240 0020 DFF8B8A2 		ldr	r10, .L120+36
 1241 0024 FFF7FEFF 		bl	_Z10initMotorsP7PWMData
 1242              	.LVL182:
 1243              	.L114:
 1244              	.LBB114:
 1245              		.loc 1 262 0
 1246 0028 3846     		mov	r0, r7
 1247 002a FFF7FEFF 		bl	_ZN7LSM9DS18readGyroEv
 1248              	.LVL183:
 1249              		.loc 1 263 0
 1250 002e BDF97010 		ldrsh	r1, [sp, #112]
 1251 0032 3846     		mov	r0, r7
 1252 0034 FFF7FEFF 		bl	_ZN7LSM9DS18calcGyroEs
 1253              	.LVL184:
 1254              		.loc 1 264 0
ARM GAS  /tmp/ccCg7YAS.s 			page 23


 1255 0038 BDF97210 		ldrsh	r1, [sp, #114]
 1256              		.loc 1 263 0
 1257 003c 0C90     		str	r0, [sp, #48]	@ float
 1258              		.loc 1 264 0
 1259 003e 3846     		mov	r0, r7
 1260 0040 FFF7FEFF 		bl	_ZN7LSM9DS18calcGyroEs
 1261              	.LVL185:
 1262              		.loc 1 265 0
 1263 0044 BDF97410 		ldrsh	r1, [sp, #116]
 1264              		.loc 1 264 0
 1265 0048 0D90     		str	r0, [sp, #52]	@ float
 1266              		.loc 1 265 0
 1267 004a 3846     		mov	r0, r7
 1268 004c FFF7FEFF 		bl	_ZN7LSM9DS18calcGyroEs
 1269              	.LVL186:
 1270 0050 0E90     		str	r0, [sp, #56]	@ float
 1271              		.loc 1 267 0
 1272 0052 3846     		mov	r0, r7
 1273 0054 FFF7FEFF 		bl	_ZN7LSM9DS17readMagEv
 1274              	.LVL187:
 1275              		.loc 1 268 0
 1276 0058 BDF97C10 		ldrsh	r1, [sp, #124]
 1277 005c 3846     		mov	r0, r7
 1278 005e FFF7FEFF 		bl	_ZN7LSM9DS17calcMagEs
 1279              	.LVL188:
 1280 0062 8346     		mov	fp, r0
 1281              		.loc 1 269 0
 1282 0064 BDF97E10 		ldrsh	r1, [sp, #126]
 1283 0068 3846     		mov	r0, r7
 1284              		.loc 1 268 0
 1285 006a CDF83CB0 		str	fp, [sp, #60]	@ float
 1286              		.loc 1 269 0
 1287 006e FFF7FEFF 		bl	_ZN7LSM9DS17calcMagEs
 1288              	.LVL189:
 1289 0072 8046     		mov	r8, r0
 1290              		.loc 1 270 0
 1291 0074 BDF98010 		ldrsh	r1, [sp, #128]
 1292 0078 3846     		mov	r0, r7
 1293              		.loc 1 269 0
 1294 007a CDF84080 		str	r8, [sp, #64]	@ float
 1295              		.loc 1 270 0
 1296 007e FFF7FEFF 		bl	_ZN7LSM9DS17calcMagEs
 1297              	.LVL190:
 1298 0082 1190     		str	r0, [sp, #68]	@ float
 1299              		.loc 1 272 0
 1300 0084 3846     		mov	r0, r7
 1301 0086 FFF7FEFF 		bl	_ZN7LSM9DS19readAccelEv
 1302              	.LVL191:
 1303              		.loc 1 273 0
 1304 008a BDF97610 		ldrsh	r1, [sp, #118]
 1305 008e 3846     		mov	r0, r7
 1306 0090 FFF7FEFF 		bl	_ZN7LSM9DS19calcAccelEs
 1307              	.LVL192:
 1308 0094 0446     		mov	r4, r0
 1309              		.loc 1 274 0
 1310 0096 BDF97810 		ldrsh	r1, [sp, #120]
 1311 009a 3846     		mov	r0, r7
ARM GAS  /tmp/ccCg7YAS.s 			page 24


 1312              		.loc 1 273 0
 1313 009c 0994     		str	r4, [sp, #36]	@ float
 1314              		.loc 1 274 0
 1315 009e FFF7FEFF 		bl	_ZN7LSM9DS19calcAccelEs
 1316              	.LVL193:
 1317 00a2 0546     		mov	r5, r0
 1318              		.loc 1 275 0
 1319 00a4 BDF97A10 		ldrsh	r1, [sp, #122]
 1320 00a8 3846     		mov	r0, r7
 1321              		.loc 1 274 0
 1322 00aa 0A95     		str	r5, [sp, #40]	@ float
 1323              		.loc 1 275 0
 1324 00ac FFF7FEFF 		bl	_ZN7LSM9DS19calcAccelEs
 1325              	.LVL194:
 1326 00b0 0646     		mov	r6, r0
 1327              		.loc 1 277 0
 1328 00b2 4046     		mov	r0, r8
 1329              		.loc 1 275 0
 1330 00b4 0B96     		str	r6, [sp, #44]	@ float
 1331              		.loc 1 277 0
 1332 00b6 FFF7FEFF 		bl	__aeabi_f2d
 1333              	.LVL195:
 1334 00ba 8046     		mov	r8, r0
 1335 00bc 0BF10040 		add	r0, fp, #-2147483648
 1336 00c0 8946     		mov	r9, r1
 1337 00c2 FFF7FEFF 		bl	__aeabi_f2d
 1338              	.LVL196:
 1339 00c6 0246     		mov	r2, r0
 1340 00c8 0B46     		mov	r3, r1
 1341 00ca 4046     		mov	r0, r8
 1342 00cc 4946     		mov	r1, r9
 1343 00ce FFF7FEFF 		bl	atan2
 1344              	.LVL197:
 1345 00d2 0022     		movs	r2, #0
 1346 00d4 7B4B     		ldr	r3, .L120+12
 1347 00d6 FFF7FEFF 		bl	__aeabi_dmul
 1348              	.LVL198:
 1349 00da 77A3     		adr	r3, .L120
 1350 00dc D3E90023 		ldrd	r2, [r3]
 1351 00e0 FFF7FEFF 		bl	__aeabi_ddiv
 1352              	.LVL199:
 1353 00e4 FFF7FEFF 		bl	__aeabi_d2f
 1354              	.LVL200:
 1355 00e8 0690     		str	r0, [sp, #24]	@ float
 1356              		.loc 1 278 0
 1357 00ea 2846     		mov	r0, r5
 1358 00ec FFF7FEFF 		bl	__aeabi_f2d
 1359              	.LVL201:
 1360 00f0 8046     		mov	r8, r0
 1361 00f2 3046     		mov	r0, r6
 1362 00f4 8946     		mov	r9, r1
 1363 00f6 FFF7FEFF 		bl	__aeabi_f2d
 1364              	.LVL202:
 1365 00fa 0246     		mov	r2, r0
 1366 00fc 0B46     		mov	r3, r1
 1367 00fe 4046     		mov	r0, r8
 1368 0100 4946     		mov	r1, r9
ARM GAS  /tmp/ccCg7YAS.s 			page 25


 1369 0102 FFF7FEFF 		bl	atan2
 1370              	.LVL203:
 1371 0106 0022     		movs	r2, #0
 1372 0108 6E4B     		ldr	r3, .L120+12
 1373 010a FFF7FEFF 		bl	__aeabi_dmul
 1374              	.LVL204:
 1375 010e 6AA3     		adr	r3, .L120
 1376 0110 D3E90023 		ldrd	r2, [r3]
 1377 0114 FFF7FEFF 		bl	__aeabi_ddiv
 1378              	.LVL205:
 1379 0118 FFF7FEFF 		bl	__aeabi_d2f
 1380              	.LVL206:
 1381              		.loc 1 279 0
 1382 011c 2946     		mov	r1, r5
 1383              		.loc 1 278 0
 1384 011e 0890     		str	r0, [sp, #32]	@ float
 1385              		.loc 1 279 0
 1386 0120 2846     		mov	r0, r5
 1387 0122 FFF7FEFF 		bl	__aeabi_fmul
 1388              	.LVL207:
 1389              		.loc 1 280 0
 1390 0126 3146     		mov	r1, r6
 1391              		.loc 1 279 0
 1392 0128 0546     		mov	r5, r0
 1393              		.loc 1 280 0
 1394 012a 3046     		mov	r0, r6
 1395 012c FFF7FEFF 		bl	__aeabi_fmul
 1396              	.LVL208:
 1397 0130 0146     		mov	r1, r0
 1398              		.loc 1 279 0
 1399 0132 2846     		mov	r0, r5
 1400 0134 FFF7FEFF 		bl	__aeabi_fadd
 1401              	.LVL209:
 1402              		.loc 1 280 0
 1403 0138 FFF7FEFF 		bl	__aeabi_f2d
 1404              	.LVL210:
 1405 013c FFF7FEFF 		bl	sqrt
 1406              	.LVL211:
 1407 0140 8046     		mov	r8, r0
 1408 0142 8946     		mov	r9, r1
 1409 0144 04F10040 		add	r0, r4, #-2147483648
 1410 0148 FFF7FEFF 		bl	__aeabi_f2d
 1411              	.LVL212:
 1412 014c 4246     		mov	r2, r8
 1413 014e 4B46     		mov	r3, r9
 1414 0150 FFF7FEFF 		bl	atan2
 1415              	.LVL213:
 1416 0154 0022     		movs	r2, #0
 1417 0156 5B4B     		ldr	r3, .L120+12
 1418 0158 FFF7FEFF 		bl	__aeabi_dmul
 1419              	.LVL214:
 1420              		.loc 1 281 0
 1421 015c 56A3     		adr	r3, .L120
 1422 015e D3E90023 		ldrd	r2, [r3]
 1423 0162 FFF7FEFF 		bl	__aeabi_ddiv
 1424              	.LVL215:
 1425 0166 FFF7FEFF 		bl	__aeabi_d2f
ARM GAS  /tmp/ccCg7YAS.s 			page 26


 1426              	.LVL216:
 1427 016a 574A     		ldr	r2, .L120+16
 1428 016c 06AB     		add	r3, sp, #24
 1429 016e 0790     		str	r0, [sp, #28]	@ float
 1430              	.LVL217:
 1431              	.L110:
 1432              	.LBB115:
 1433              	.LBB116:
 1434              	.LBB117:
 1435              		.loc 1 54 0
 1436 0170 13F8011B 		ldrb	r1, [r3], #1	@ zero_extendqisi2
 1437              		.loc 1 53 0
 1438 0174 BB42     		cmp	r3, r7
 1439              		.loc 1 54 0
 1440 0176 02F8011F 		strb	r1, [r2, #1]!
 1441              	.LVL218:
 1442              		.loc 1 53 0
 1443 017a F9D1     		bne	.L110
 1444              	.LBE117:
 1445              	.LBE116:
 1446              	.LBE115:
 1447              	.LBB118:
 1448              		.loc 1 286 0 discriminator 1
 1449 017c DAF80030 		ldr	r3, [r10]
 1450 0180 93F8F040 		ldrb	r4, [r3, #240]	@ zero_extendqisi2
 1451 0184 012C     		cmp	r4, #1
 1452 0186 05D0     		beq	.L118
 1453              		.loc 1 319 0
 1454 0188 022C     		cmp	r4, #2
 1455 018a 7DD0     		beq	.L119
 1456              	.LVL219:
 1457              	.L113:
 1458              	.LBE118:
 1459              		.loc 1 326 0
 1460 018c 1420     		movs	r0, #20
 1461 018e FFF7FEFF 		bl	chThdSleep
 1462              	.LVL220:
 1463 0192 49E7     		b	.L114
 1464              	.LVL221:
 1465              	.L118:
 1466              	.LBB122:
 1467              	.LBB119:
 1468              		.loc 1 288 0
 1469 0194 FFF7FEFF 		bl	_Z13calculate_pidv
 1470              	.LVL222:
 1471              		.loc 1 289 0
 1472 0198 4C4A     		ldr	r2, .L120+20
 1473 019a 4FF40033 		mov	r3, #131072
 1474 019e 1363     		str	r3, [r2, #48]
 1475              		.loc 1 290 0
 1476 01a0 4B4B     		ldr	r3, .L120+24
 1477 01a2 4C49     		ldr	r1, .L120+28
 1478 01a4 1868     		ldr	r0, [r3]	@ float
 1479 01a6 FFF7FEFF 		bl	__aeabi_fmul
 1480              	.LVL223:
 1481 01aa 0546     		mov	r5, r0
 1482              		.loc 1 291 0
ARM GAS  /tmp/ccCg7YAS.s 			page 27


 1483 01ac 4A4B     		ldr	r3, .L120+32
 1484 01ae 4949     		ldr	r1, .L120+28
 1485 01b0 1868     		ldr	r0, [r3]	@ float
 1486              		.loc 1 290 0
 1487 01b2 474B     		ldr	r3, .L120+24
 1488 01b4 1D60     		str	r5, [r3]	@ float
 1489              		.loc 1 291 0
 1490 01b6 FFF7FEFF 		bl	__aeabi_fmul
 1491              	.LVL224:
 1492 01ba 0446     		mov	r4, r0
 1493 01bc 464B     		ldr	r3, .L120+32
 1494              		.loc 1 293 0
 1495 01be 2846     		mov	r0, r5
 1496              		.loc 1 291 0
 1497 01c0 1C60     		str	r4, [r3]	@ float
 1498              		.loc 1 293 0
 1499 01c2 FFF7FEFF 		bl	__aeabi_f2iz
 1500              	.LVL225:
 1501 01c6 0546     		mov	r5, r0
 1502              	.LVL226:
 1503              		.loc 1 294 0
 1504 01c8 2046     		mov	r0, r4
 1505              	.LVL227:
 1506 01ca FFF7FEFF 		bl	__aeabi_f2iz
 1507              	.LVL228:
 1508              	.LBB120:
 1509              	.LBB121:
 1510              		.loc 1 222 0
 1511 01ce 434B     		ldr	r3, .L120+36
 1512 01d0 1B68     		ldr	r3, [r3]
 1513 01d2 93F8F130 		ldrb	r3, [r3, #241]	@ zero_extendqisi2
 1514              	.LVL229:
 1515 01d6 013B     		subs	r3, r3, #1
 1516              	.LVL230:
 1517 01d8 DBB2     		uxtb	r3, r3
 1518              	.LVL231:
 1519 01da 132B     		cmp	r3, #19
 1520 01dc 96BF     		itet	ls
 1521 01de 404A     		ldrls	r2, .L120+40
 1522 01e0 404B     		ldrhi	r3, .L120+44
 1523 01e2 52F82330 		ldrls	r3, [r2, r3, lsl #2]
 1524              	.LBE121:
 1525              	.LBE120:
 1526              		.loc 1 303 0
 1527 01e6 404A     		ldr	r2, .L120+48
 1528              		.loc 1 298 0
 1529 01e8 C0EB030E 		rsb	lr, r0, r3
 1530              		.loc 1 303 0
 1531 01ec 1168     		ldr	r1, [r2]
 1532              		.loc 1 298 0
 1533 01ee 0EEB0504 		add	r4, lr, r5
 1534              	.LVL232:
 1535              		.loc 1 299 0
 1536 01f2 C218     		adds	r2, r0, r3
 1537 01f4 561B     		subs	r6, r2, r5
 1538              	.LVL233:
 1539 01f6 8C42     		cmp	r4, r1
ARM GAS  /tmp/ccCg7YAS.s 			page 28


 1540 01f8 2346     		mov	r3, r4
 1541              		.loc 1 300 0
 1542 01fa 05EB0204 		add	r4, r5, r2
 1543              	.LVL234:
 1544 01fe B8BF     		it	lt
 1545 0200 0B46     		movlt	r3, r1
 1546              	.LVL235:
 1547 0202 8E42     		cmp	r6, r1
 1548 0204 B8BF     		it	lt
 1549 0206 0E46     		movlt	r6, r1
 1550              	.LVL236:
 1551              		.loc 1 301 0
 1552 0208 C5EB0E05 		rsb	r5, r5, lr
 1553              	.LVL237:
 1554 020c 8C42     		cmp	r4, r1
 1555 020e B8BF     		it	lt
 1556 0210 0C46     		movlt	r4, r1
 1557              	.LVL238:
 1558 0212 A942     		cmp	r1, r5
 1559 0214 B8BF     		it	lt
 1560 0216 2946     		movlt	r1, r5
 1561              		.loc 1 304 0
 1562 0218 344A     		ldr	r2, .L120+52
 1563              		.loc 1 313 0
 1564 021a 02A8     		add	r0, sp, #8
 1565              	.LVL239:
 1566              		.loc 1 304 0
 1567 021c 1268     		ldr	r2, [r2]
 1568 021e 9342     		cmp	r3, r2
 1569 0220 A8BF     		it	ge
 1570 0222 1346     		movge	r3, r2
 1571              	.LVL240:
 1572 0224 9642     		cmp	r6, r2
 1573 0226 A8BF     		it	ge
 1574 0228 1646     		movge	r6, r2
 1575              	.LVL241:
 1576 022a 9442     		cmp	r4, r2
 1577 022c A8BF     		it	ge
 1578 022e 1446     		movge	r4, r2
 1579              	.LVL242:
 1580 0230 9142     		cmp	r1, r2
 1581 0232 A8BF     		it	ge
 1582 0234 1146     		movge	r1, r2
 1583              	.LVL243:
 1584 0236 0D46     		mov	r5, r1
 1585              	.LVL244:
 1586              		.loc 1 313 0
 1587 0238 DAB2     		uxtb	r2, r3
 1588 023a 0092     		str	r2, [sp]
 1589              	.LVL245:
 1590 023c 0121     		movs	r1, #1
 1591              	.LVL246:
 1592 023e C3F30742 		ubfx	r2, r3, #16, #8
 1593 0242 C3F30723 		ubfx	r3, r3, #8, #8
 1594              	.LVL247:
 1595 0246 FFF7FEFF 		bl	_Z8set_dutyP7PWMDatacccc
 1596              	.LVL248:
ARM GAS  /tmp/ccCg7YAS.s 			page 29


 1597              		.loc 1 314 0
 1598 024a F3B2     		uxtb	r3, r6
 1599 024c 0093     		str	r3, [sp]
 1600 024e C6F30742 		ubfx	r2, r6, #16, #8
 1601 0252 C6F30723 		ubfx	r3, r6, #8, #8
 1602 0256 02A8     		add	r0, sp, #8
 1603 0258 0221     		movs	r1, #2
 1604 025a FFF7FEFF 		bl	_Z8set_dutyP7PWMDatacccc
 1605              	.LVL249:
 1606              		.loc 1 315 0
 1607 025e E3B2     		uxtb	r3, r4
 1608 0260 0093     		str	r3, [sp]
 1609 0262 C4F30742 		ubfx	r2, r4, #16, #8
 1610 0266 C4F30723 		ubfx	r3, r4, #8, #8
 1611 026a 02A8     		add	r0, sp, #8
 1612 026c 0321     		movs	r1, #3
 1613 026e FFF7FEFF 		bl	_Z8set_dutyP7PWMDatacccc
 1614              	.LVL250:
 1615              		.loc 1 316 0
 1616 0272 EBB2     		uxtb	r3, r5
 1617 0274 0093     		str	r3, [sp]
 1618 0276 C5F30742 		ubfx	r2, r5, #16, #8
 1619 027a C5F30723 		ubfx	r3, r5, #8, #8
 1620 027e 02A8     		add	r0, sp, #8
 1621 0280 0421     		movs	r1, #4
 1622 0282 FFF7FEFF 		bl	_Z8set_dutyP7PWMDatacccc
 1623              	.LVL251:
 1624              	.LBE119:
 1625 0286 81E7     		b	.L113
 1626              	.LVL252:
 1627              	.L119:
 1628              		.loc 1 320 0
 1629 0288 104A     		ldr	r2, .L120+20
 1630              	.LVL253:
 1631 028a 4FF40033 		mov	r3, #131072
 1632 028e 5363     		str	r3, [r2, #52]
 1633              		.loc 1 321 0
 1634 0290 02A8     		add	r0, sp, #8
 1635 0292 0121     		movs	r1, #1
 1636 0294 FFF7FEFF 		bl	_Z8plusDutyP7PWMDatai
 1637              	.LVL254:
 1638              		.loc 1 322 0
 1639 0298 02A8     		add	r0, sp, #8
 1640 029a 2146     		mov	r1, r4
 1641 029c FFF7FEFF 		bl	_Z8plusDutyP7PWMDatai
 1642              	.LVL255:
 1643              		.loc 1 323 0
 1644 02a0 02A8     		add	r0, sp, #8
 1645 02a2 0321     		movs	r1, #3
 1646 02a4 FFF7FEFF 		bl	_Z8plusDutyP7PWMDatai
 1647              	.LVL256:
 1648              		.loc 1 324 0
 1649 02a8 02A8     		add	r0, sp, #8
 1650 02aa 0421     		movs	r1, #4
 1651 02ac FFF7FEFF 		bl	_Z8plusDutyP7PWMDatai
 1652              	.LVL257:
 1653 02b0 6CE7     		b	.L113
ARM GAS  /tmp/ccCg7YAS.s 			page 30


 1654              	.L121:
 1655 02b2 00BFAFF3 		.align	3
 1655      0080
 1656              	.L120:
 1657 02b8 182D4454 		.word	1413754136
 1658 02bc FB210940 		.word	1074340347
 1659 02c0 00000000 		.word	.LANCHOR18
 1660 02c4 00806640 		.word	1080459264
 1661 02c8 2F000063 		.word	1660944431
 1662 02cc 00120E40 		.word	1074663936
 1663 02d0 00000000 		.word	.LANCHOR8
 1664 02d4 00004843 		.word	1128792064
 1665 02d8 00000000 		.word	.LANCHOR16
 1666 02dc 00000000 		.word	.LANCHOR17
 1667 02e0 00000000 		.word	.LANCHOR19
 1668 02e4 400D0300 		.word	200000
 1669 02e8 00000000 		.word	.LANCHOR20
 1670 02ec 00000000 		.word	.LANCHOR21
 1671              	.LBE122:
 1672              	.LBE114:
 1673              	.LBE113:
 1674              		.cfi_endproc
 1675              	.LFE44:
 1676              		.fnend
 1677              		.size	_ZL9IMUThreadPv, .-_ZL9IMUThreadPv
 1678              		.section	.text._Z9plusDuty2v,"ax",%progbits
 1679              		.align	2
 1680              		.p2align 4,,15
 1681              		.global	_Z9plusDuty2v
 1682              		.thumb
 1683              		.thumb_func
 1684              		.type	_Z9plusDuty2v, %function
 1685              	_Z9plusDuty2v:
 1686              		.fnstart
 1687              	.LFB43:
 1688              		.loc 1 221 0
 1689              		.cfi_startproc
 1690              		@ args = 0, pretend = 0, frame = 0
 1691              		@ frame_needed = 0, uses_anonymous_args = 0
 1692              		@ link register save eliminated.
 1693              	.LVL258:
 1694              	.LBB123:
 1695              		.loc 1 222 0
 1696 0000 064B     		ldr	r3, .L125
 1697 0002 1B68     		ldr	r3, [r3]
 1698 0004 93F8F130 		ldrb	r3, [r3, #241]	@ zero_extendqisi2
 1699              	.LVL259:
 1700 0008 013B     		subs	r3, r3, #1
 1701              	.LVL260:
 1702 000a DBB2     		uxtb	r3, r3
 1703              	.LVL261:
 1704 000c 132B     		cmp	r3, #19
 1705 000e 9ABF     		itte	ls
 1706 0010 034A     		ldrls	r2, .L125+4
 1707 0012 52F82300 		ldrls	r0, [r2, r3, lsl #2]
 1708 0016 0348     		ldrhi	r0, .L125+8
 1709              	.LBE123:
ARM GAS  /tmp/ccCg7YAS.s 			page 31


 1710              		.loc 1 247 0
 1711 0018 7047     		bx	lr
 1712              	.L126:
 1713 001a 00BF     		.align	2
 1714              	.L125:
 1715 001c 00000000 		.word	.LANCHOR17
 1716 0020 00000000 		.word	.LANCHOR19
 1717 0024 400D0300 		.word	200000
 1718              		.cfi_endproc
 1719              	.LFE43:
 1720              		.cantunwind
 1721              		.fnend
 1722              		.size	_Z9plusDuty2v, .-_Z9plusDuty2v
 1723              		.section	.text.startup.main,"ax",%progbits
 1724              		.align	2
 1725              		.p2align 4,,15
 1726              		.global	main
 1727              		.thumb
 1728              		.thumb_func
 1729              		.type	main, %function
 1730              	main:
 1731              		.fnstart
 1732              	.LFB45:
 1733              		.loc 1 334 0
 1734              		.cfi_startproc
 1735              		@ args = 0, pretend = 0, frame = 0
 1736              		@ frame_needed = 0, uses_anonymous_args = 0
 1737 0000 10B5     		push	{r4, lr}
 1738              		.save {r4, lr}
 1739              		.cfi_def_cfa_offset 8
 1740              		.cfi_offset 4, -8
 1741              		.cfi_offset 14, -4
 1742              		.pad #8
 1743 0002 82B0     		sub	sp, sp, #8
 1744              		.cfi_def_cfa_offset 16
 1745              		.loc 1 335 0
 1746 0004 FFF7FEFF 		bl	halInit
 1747              	.LVL262:
 1748              		.loc 1 337 0
 1749 0008 FFF7FEFF 		bl	chSysInit
 1750              	.LVL263:
 1751              		.loc 1 340 0
 1752 000c 0521     		movs	r1, #5
 1753 000e 0C48     		ldr	r0, .L129
 1754 0010 FFF7FEFF 		bl	PIO_Configure
 1755              	.LVL264:
 1756              		.loc 1 343 0
 1757 0014 0B48     		ldr	r0, .L129+4
 1758 0016 FFF7FEFF 		bl	BOARD_ConfigurePSRAM
 1759              	.LVL265:
 1760              		.loc 1 349 0
 1761 001a 0024     		movs	r4, #0
 1762              		.loc 1 345 0
 1763 001c 0A48     		ldr	r0, .L129+8
 1764 001e FFF7FEFF 		bl	_ZN7creator3I2C4InitEv
 1765              	.LVL266:
 1766              		.loc 1 349 0
ARM GAS  /tmp/ccCg7YAS.s 			page 32


 1767 0022 4022     		movs	r2, #64
 1768 0024 094B     		ldr	r3, .L129+12
 1769 0026 0094     		str	r4, [sp]
 1770 0028 4FF42C71 		mov	r1, #688
 1771 002c 0848     		ldr	r0, .L129+16
 1772 002e FFF7FEFF 		bl	chThdCreateStatic
 1773              	.LVL267:
 1774              		.loc 1 351 0
 1775 0032 2146     		mov	r1, r4
 1776 0034 0748     		ldr	r0, .L129+20
 1777 0036 FFF7FEFF 		bl	sdStart
 1778              	.LVL268:
 1779              		.loc 1 353 0
 1780 003a 2046     		mov	r0, r4
 1781 003c 02B0     		add	sp, sp, #8
 1782              		.cfi_def_cfa_offset 8
 1783              		@ sp needed
 1784 003e 10BD     		pop	{r4, pc}
 1785              	.L130:
 1786              		.align	2
 1787              	.L129:
 1788 0040 00000000 		.word	.LANCHOR22
 1789 0044 00000E40 		.word	1074659328
 1790 0048 00000000 		.word	.LANCHOR18
 1791 004c 00000000 		.word	_ZL9IMUThreadPv
 1792 0050 00000000 		.word	.LANCHOR23
 1793 0054 00000000 		.word	SD1
 1794              		.cfi_endproc
 1795              	.LFE45:
 1796              		.fnend
 1797              		.size	main, .-main
 1798              		.section	.text.startup._GLOBAL__sub_I_ptr,"ax",%progbits
 1799              		.align	2
 1800              		.p2align 4,,15
 1801              		.thumb
 1802              		.thumb_func
 1803              		.type	_GLOBAL__sub_I_ptr, %function
 1804              	_GLOBAL__sub_I_ptr:
 1805              		.fnstart
 1806              	.LFB47:
 1807              		.loc 1 353 0
 1808              		.cfi_startproc
 1809              		@ args = 0, pretend = 0, frame = 0
 1810              		@ frame_needed = 0, uses_anonymous_args = 0
 1811              		@ link register save eliminated.
 1812              	.LVL269:
 1813 0000 F0B4     		push	{r4, r5, r6, r7}
 1814              		.cfi_def_cfa_offset 16
 1815              		.cfi_offset 4, -16
 1816              		.cfi_offset 5, -12
 1817              		.cfi_offset 6, -8
 1818              		.cfi_offset 7, -4
 1819              	.LBB124:
 1820              	.LBB125:
 1821              		.loc 1 68 0
 1822 0002 0948     		ldr	r0, .L133
 1823              		.loc 1 69 0
ARM GAS  /tmp/ccCg7YAS.s 			page 33


 1824 0004 0949     		ldr	r1, .L133+4
 1825              		.loc 1 70 0
 1826 0006 0A4A     		ldr	r2, .L133+8
 1827              		.loc 1 71 0
 1828 0008 0A4B     		ldr	r3, .L133+12
 1829              		.loc 1 69 0
 1830 000a 0D68     		ldr	r5, [r1]	@ float
 1831              		.loc 1 68 0
 1832 000c 0768     		ldr	r7, [r0]	@ float
 1833 000e 0A4E     		ldr	r6, .L133+16
 1834              		.loc 1 69 0
 1835 0010 0A4C     		ldr	r4, .L133+20
 1836              		.loc 1 70 0
 1837 0012 1068     		ldr	r0, [r2]	@ float
 1838 0014 0A49     		ldr	r1, .L133+24
 1839              		.loc 1 71 0
 1840 0016 1A68     		ldr	r2, [r3]
 1841 0018 0A4B     		ldr	r3, .L133+28
 1842              		.loc 1 68 0
 1843 001a 3760     		str	r7, [r6]	@ float
 1844              		.loc 1 69 0
 1845 001c 2560     		str	r5, [r4]	@ float
 1846              		.loc 1 70 0
 1847 001e 0860     		str	r0, [r1]	@ float
 1848              		.loc 1 71 0
 1849 0020 1A60     		str	r2, [r3]
 1850              	.LBE125:
 1851              	.LBE124:
 1852              		.loc 1 353 0
 1853 0022 F0BC     		pop	{r4, r5, r6, r7}
 1854              		.cfi_restore 7
 1855              		.cfi_restore 6
 1856              		.cfi_restore 5
 1857              		.cfi_restore 4
 1858              		.cfi_def_cfa_offset 0
 1859 0024 7047     		bx	lr
 1860              	.L134:
 1861 0026 00BF     		.align	2
 1862              	.L133:
 1863 0028 00000000 		.word	.LANCHOR5
 1864 002c 00000000 		.word	.LANCHOR2
 1865 0030 00000000 		.word	.LANCHOR7
 1866 0034 00000000 		.word	.LANCHOR4
 1867 0038 00000000 		.word	.LANCHOR13
 1868 003c 00000000 		.word	.LANCHOR10
 1869 0040 00000000 		.word	.LANCHOR15
 1870 0044 00000000 		.word	.LANCHOR12
 1871              		.cfi_endproc
 1872              	.LFE47:
 1873              		.cantunwind
 1874              		.fnend
 1875              		.size	_GLOBAL__sub_I_ptr, .-_GLOBAL__sub_I_ptr
 1876              		.section	.init_array,"aw",%init_array
 1877              		.align	2
 1878 0000 00000000 		.word	_GLOBAL__sub_I_ptr(target1)
 1879              		.global	pid_last_pitch_d_error
 1880              		.global	pid_last_roll_d_error
ARM GAS  /tmp/ccCg7YAS.s 			page 34


 1881              		.global	pid_i_mem_pitch
 1882              		.global	pid_i_mem_roll
 1883              		.global	pid_output_pitch
 1884              		.global	pid_output_roll
 1885              		.global	dataimu
 1886              		.global	pid_pitch_setpoint
 1887              		.global	pid_roll_setpoint
 1888              		.global	pid_max_pitch
 1889              		.global	pid_d_gain_pitch
 1890              		.global	pid_i_gain_pitch
 1891              		.global	pid_p_gain_pitch
 1892              		.global	pid_max_roll
 1893              		.global	pid_d_gain_roll
 1894              		.global	pid_i_gain_roll
 1895              		.global	pid_p_gain_roll
 1896              		.global	minPwm
 1897              		.global	maxPwm
 1898              		.global	i2c
 1899              		.global	ptr
 1900              		.section	.data.pid_roll_setpoint,"aw",%progbits
 1901              		.align	2
 1902              		.set	.LANCHOR1,. + 0
 1903              		.type	pid_roll_setpoint, %object
 1904              		.size	pid_roll_setpoint, 4
 1905              	pid_roll_setpoint:
 1906 0000 000080BF 		.word	3212836864
 1907              		.section	.bss.pid_i_gain_pitch,"aw",%nobits
 1908              		.align	2
 1909              		.set	.LANCHOR10,. + 0
 1910              		.type	pid_i_gain_pitch, %object
 1911              		.size	pid_i_gain_pitch, 4
 1912              	pid_i_gain_pitch:
 1913 0000 00000000 		.space	4
 1914              		.section	.data.pid_i_gain_roll,"aw",%progbits
 1915              		.align	2
 1916              		.set	.LANCHOR2,. + 0
 1917              		.type	pid_i_gain_roll, %object
 1918              		.size	pid_i_gain_roll, 4
 1919              	pid_i_gain_roll:
 1920 0000 0AD7233D 		.word	1025758986
 1921              		.section	.bss.pid_output_roll,"aw",%nobits
 1922              		.align	2
 1923              		.set	.LANCHOR8,. + 0
 1924              		.type	pid_output_roll, %object
 1925              		.size	pid_output_roll, 4
 1926              	pid_output_roll:
 1927 0000 00000000 		.space	4
 1928              		.section	.data.maxPwm,"aw",%progbits
 1929              		.align	2
 1930              		.set	.LANCHOR21,. + 0
 1931              		.type	maxPwm, %object
 1932              		.size	maxPwm, 4
 1933              	maxPwm:
 1934 0000 801A0600 		.word	400000
 1935              		.section	.data.pid_d_gain_roll,"aw",%progbits
 1936              		.align	2
 1937              		.set	.LANCHOR7,. + 0
ARM GAS  /tmp/ccCg7YAS.s 			page 35


 1938              		.type	pid_d_gain_roll, %object
 1939              		.size	pid_d_gain_roll, 4
 1940              	pid_d_gain_roll:
 1941 0000 0000E041 		.word	1105199104
 1942              		.section	.bss.pid_i_mem_roll,"aw",%nobits
 1943              		.align	2
 1944              		.set	.LANCHOR3,. + 0
 1945              		.type	pid_i_mem_roll, %object
 1946              		.size	pid_i_mem_roll, 4
 1947              	pid_i_mem_roll:
 1948 0000 00000000 		.space	4
 1949              		.section	.bss.pid_output_pitch,"aw",%nobits
 1950              		.align	2
 1951              		.set	.LANCHOR16,. + 0
 1952              		.type	pid_output_pitch, %object
 1953              		.size	pid_output_pitch, 4
 1954              	pid_output_pitch:
 1955 0000 00000000 		.space	4
 1956              		.section	.data.minPwm,"aw",%progbits
 1957              		.align	2
 1958              		.set	.LANCHOR20,. + 0
 1959              		.type	minPwm, %object
 1960              		.size	minPwm, 4
 1961              	minPwm:
 1962 0000 605B0300 		.word	220000
 1963              		.section	.bss.pid_last_roll_d_error,"aw",%nobits
 1964              		.align	2
 1965              		.set	.LANCHOR6,. + 0
 1966              		.type	pid_last_roll_d_error, %object
 1967              		.size	pid_last_roll_d_error, 4
 1968              	pid_last_roll_d_error:
 1969 0000 00000000 		.space	4
 1970              		.section	.bss.dataimu,"aw",%nobits
 1971              		.align	2
 1972              		.set	.LANCHOR0,. + 0
 1973              		.type	dataimu, %object
 1974              		.size	dataimu, 48
 1975              	dataimu:
 1976 0000 00000000 		.space	48
 1976      00000000 
 1976      00000000 
 1976      00000000 
 1976      00000000 
 1977              		.section	.bss.pid_p_gain_pitch,"aw",%nobits
 1978              		.align	2
 1979              		.set	.LANCHOR13,. + 0
 1980              		.type	pid_p_gain_pitch, %object
 1981              		.size	pid_p_gain_pitch, 4
 1982              	pid_p_gain_pitch:
 1983 0000 00000000 		.space	4
 1984              		.section	.data.pid_max_roll,"aw",%progbits
 1985              		.align	2
 1986              		.set	.LANCHOR4,. + 0
 1987              		.type	pid_max_roll, %object
 1988              		.size	pid_max_roll, 4
 1989              	pid_max_roll:
 1990 0000 90010000 		.word	400
ARM GAS  /tmp/ccCg7YAS.s 			page 36


 1991              		.section	.data.pid_pitch_setpoint,"aw",%progbits
 1992              		.align	2
 1993              		.set	.LANCHOR9,. + 0
 1994              		.type	pid_pitch_setpoint, %object
 1995              		.size	pid_pitch_setpoint, 4
 1996              	pid_pitch_setpoint:
 1997 0000 00004040 		.word	1077936128
 1998              		.section	.bss.pid_i_mem_pitch,"aw",%nobits
 1999              		.align	2
 2000              		.set	.LANCHOR11,. + 0
 2001              		.type	pid_i_mem_pitch, %object
 2002              		.size	pid_i_mem_pitch, 4
 2003              	pid_i_mem_pitch:
 2004 0000 00000000 		.space	4
 2005              		.section	.data.pid_p_gain_roll,"aw",%progbits
 2006              		.align	2
 2007              		.set	.LANCHOR5,. + 0
 2008              		.type	pid_p_gain_roll, %object
 2009              		.size	pid_p_gain_roll, 4
 2010              	pid_p_gain_roll:
 2011 0000 CDCC4C3F 		.word	1061997773
 2012              		.section	.bss.pid_max_pitch,"aw",%nobits
 2013              		.align	2
 2014              		.set	.LANCHOR12,. + 0
 2015              		.type	pid_max_pitch, %object
 2016              		.size	pid_max_pitch, 4
 2017              	pid_max_pitch:
 2018 0000 00000000 		.space	4
 2019              		.section	.bss.pid_last_pitch_d_error,"aw",%nobits
 2020              		.align	2
 2021              		.set	.LANCHOR14,. + 0
 2022              		.type	pid_last_pitch_d_error, %object
 2023              		.size	pid_last_pitch_d_error, 4
 2024              	pid_last_pitch_d_error:
 2025 0000 00000000 		.space	4
 2026              		.section	.bss._ZL11waIMUThread,"aw",%nobits
 2027              		.align	3
 2028              		.set	.LANCHOR23,. + 0
 2029              		.type	_ZL11waIMUThread, %object
 2030              		.size	_ZL11waIMUThread, 688
 2031              	_ZL11waIMUThread:
 2032 0000 00000000 		.space	688
 2032      00000000 
 2032      00000000 
 2032      00000000 
 2032      00000000 
 2033              		.section	.rodata.CSWTCH.52,"a",%progbits
 2034              		.align	2
 2035              		.set	.LANCHOR19,. + 0
 2036              		.type	CSWTCH.52, %object
 2037              		.size	CSWTCH.52, 80
 2038              	CSWTCH.52:
 2039 0000 50340300 		.word	210000
 2040 0004 605B0300 		.word	220000
 2041 0008 70820300 		.word	230000
 2042 000c 80A90300 		.word	240000
 2043 0010 90D00300 		.word	250000
ARM GAS  /tmp/ccCg7YAS.s 			page 37


 2044 0014 A0F70300 		.word	260000
 2045 0018 B01E0400 		.word	270000
 2046 001c C0450400 		.word	280000
 2047 0020 D06C0400 		.word	290000
 2048 0024 E0930400 		.word	300000
 2049 0028 F0BA0400 		.word	310000
 2050 002c 00E20400 		.word	320000
 2051 0030 10090500 		.word	330000
 2052 0034 20300500 		.word	340000
 2053 0038 30570500 		.word	350000
 2054 003c 407E0500 		.word	360000
 2055 0040 50A50500 		.word	370000
 2056 0044 60CC0500 		.word	380000
 2057 0048 70F30500 		.word	390000
 2058 004c 801A0600 		.word	400000
 2059              		.section	.bss.pid_d_gain_pitch,"aw",%nobits
 2060              		.align	2
 2061              		.set	.LANCHOR15,. + 0
 2062              		.type	pid_d_gain_pitch, %object
 2063              		.size	pid_d_gain_pitch, 4
 2064              	pid_d_gain_pitch:
 2065 0000 00000000 		.space	4
 2066              		.section	.bss.i2c,"aw",%nobits
 2067              		.align	2
 2068              		.set	.LANCHOR18,. + 0
 2069              		.type	i2c, %object
 2070              		.size	i2c, 8
 2071              	i2c:
 2072 0000 00000000 		.space	8
 2072      00000000 
 2073              		.section	.rodata._ZL8pinPsram,"a",%progbits
 2074              		.align	2
 2075              		.set	.LANCHOR22,. + 0
 2076              		.type	_ZL8pinPsram, %object
 2077              		.size	_ZL8pinPsram, 60
 2078              	_ZL8pinPsram:
 2079 0000 FF000000 		.word	255
 2080 0004 00120E40 		.word	1074663936
 2081 0008 0D       		.byte	13
 2082 0009 00       		.byte	0
 2083 000a 01       		.byte	1
 2084 000b 00       		.space	1
 2085 000c 00080000 		.word	2048
 2086 0010 00120E40 		.word	1074663936
 2087 0014 0D       		.byte	13
 2088 0015 00       		.byte	0
 2089 0016 01       		.byte	1
 2090 0017 00       		.space	1
 2091 0018 00010000 		.word	256
 2092 001c 00120E40 		.word	1074663936
 2093 0020 0D       		.byte	13
 2094 0021 00       		.byte	0
 2095 0022 01       		.byte	1
 2096 0023 00       		.space	1
 2097 0024 00100000 		.word	4096
 2098 0028 00120E40 		.word	1074663936
 2099 002c 0D       		.byte	13
ARM GAS  /tmp/ccCg7YAS.s 			page 38


 2100 002d 00       		.byte	0
 2101 002e 01       		.byte	1
 2102 002f 00       		.space	1
 2103 0030 0000FCFF 		.word	-262144
 2104 0034 00120E40 		.word	1074663936
 2105 0038 0D       		.byte	13
 2106 0039 00       		.byte	0
 2107 003a 01       		.byte	1
 2108 003b 00       		.space	1
 2109              		.section	.data.ptr,"aw",%progbits
 2110              		.align	2
 2111              		.set	.LANCHOR17,. + 0
 2112              		.type	ptr, %object
 2113              		.size	ptr, 4
 2114              	ptr:
 2115 0000 00000063 		.word	1660944384
 2116              		.text
 2117              	.Letext0:
 2118              		.file 2 "/usr/lib/gcc/arm-none-eabi/4.9.3/include/stddef.h"
 2119              		.file 3 "/usr/include/newlib/machine/_default_types.h"
 2120              		.file 4 "/usr/include/newlib/sys/_stdint.h"
 2121              		.file 5 "/usr/include/newlib/stdint.h"
 2122              		.file 6 "../third_party/ChibiOS/os/ports/GCC/ARMCMx/chtypes.h"
 2123              		.file 7 "../third_party/ChibiOS/os/kernel/include/chlists.h"
 2124              		.file 8 "../third_party/ChibiOS/os/kernel/include/chthreads.h"
 2125              		.file 9 "../third_party/ChibiOS/os/ports/GCC/ARMCMx/chcore_v7m.h"
 2126              		.file 10 "../third_party/ChibiOS/os/kernel/include/chmtx.h"
 2127              		.file 11 "../third_party/ChibiOS/os/kernel/include/chevents.h"
 2128              		.file 12 "../third_party/ChibiOS/os/kernel/include/chqueues.h"
 2129              		.file 13 "../third_party/ChibiOS/os/kernel/include/chioch.h"
 2130              		.file 14 "../third_party/ChibiOS/os/hal/platforms/AT91SAM3S/at91lib/SAM3S.h"
 2131              		.file 15 "../third_party/ChibiOS/os/hal/platforms/AT91SAM3S/pal_lld.h"
 2132              		.file 16 "../third_party/ChibiOS/os/hal/include/serial.h"
 2133              		.file 17 "../third_party/ChibiOS/os/hal/platforms/AT91SAM3S/serial_lld.h"
 2134              		.file 18 "../third_party/ChibiOS/os/hal/platforms/AT91SAM3S/async.h"
 2135              		.file 19 "../third_party/ChibiOS/os/hal/platforms/AT91SAM3S/atmel_twid.h"
 2136              		.file 20 "./i2c.h"
 2137              		.file 21 "./sensors_data.h"
 2138              		.file 22 "./lsm9ds1_types.h"
 2139              		.file 23 "./lsm9ds1.h"
 2140              		.file 24 "../third_party/ChibiOS/os/hal/platforms/AT91SAM3S/atmel_pio.h"
 2141              		.file 25 "../third_party/ChibiOS/os/hal/platforms/AT91SAM3S/atmel_psram.h"
 2142              		.file 26 "../third_party/ChibiOS/os/hal/platforms/AT91SAM3S/core_cm3.h"
 2143              		.file 27 "/usr/include/newlib/math.h"
 2144              		.file 28 "../third_party/ChibiOS/os/hal/include/hal.h"
 2145              		.file 29 "../third_party/ChibiOS/os/kernel/include/chsys.h"