ARM GAS  /tmp/ccE0uw0Y.s 			page 1


   1              		.syntax unified
   2              		.cpu cortex-m3
   3              		.fpu softvfp
   4              		.eabi_attribute 20, 1
   5              		.eabi_attribute 21, 1
   6              		.eabi_attribute 23, 3
   7              		.eabi_attribute 24, 1
   8              		.eabi_attribute 25, 1
   9              		.eabi_attribute 26, 1
  10              		.eabi_attribute 30, 2
  11              		.eabi_attribute 34, 1
  12              		.eabi_attribute 18, 4
  13              		.thumb
  14              		.file	"mpl3115a2.cpp"
  15              		.text
  16              	.Ltext0:
  17              		.cfi_sections	.debug_frame
  18              		.section	.text._ZN7creator9MPL3115A2C2EPNS_3I2CEh,"ax",%progbits
  19              		.align	2
  20              		.p2align 4,,15
  21              		.global	_ZN7creator9MPL3115A2C2EPNS_3I2CEh
  22              		.thumb
  23              		.thumb_func
  24              		.type	_ZN7creator9MPL3115A2C2EPNS_3I2CEh, %function
  25              	_ZN7creator9MPL3115A2C2EPNS_3I2CEh:
  26              		.fnstart
  27              	.LFB37:
  28              		.file 1 "mpl3115a2.cpp"
  29              		.loc 1 34 0
  30              		.cfi_startproc
  31              		@ args = 0, pretend = 0, frame = 0
  32              		@ frame_needed = 0, uses_anonymous_args = 0
  33              		@ link register save eliminated.
  34              	.LVL0:
  35 0000 10B4     		push	{r4}
  36              		.cfi_def_cfa_offset 4
  37              		.cfi_offset 4, -4
  38              	.LBB44:
  39              		.loc 1 35 0
  40 0002 0024     		movs	r4, #0
  41 0004 4471     		strb	r4, [r0, #5]
  42              		.loc 1 36 0
  43 0006 8471     		strb	r4, [r0, #6]
  44              		.loc 1 37 0
  45 0008 C471     		strb	r4, [r0, #7]
  46              		.loc 1 34 0
  47 000a 0160     		str	r1, [r0]
  48 000c 0271     		strb	r2, [r0, #4]
  49              	.LBE44:
  50              		.loc 1 38 0
  51 000e 5DF8044B 		ldr	r4, [sp], #4
  52              		.cfi_restore 4
  53              		.cfi_def_cfa_offset 0
  54 0012 7047     		bx	lr
  55              		.cfi_endproc
  56              	.LFE37:
  57              		.cantunwind
ARM GAS  /tmp/ccE0uw0Y.s 			page 2


  58              		.fnend
  59              		.size	_ZN7creator9MPL3115A2C2EPNS_3I2CEh, .-_ZN7creator9MPL3115A2C2EPNS_3I2CEh
  60              		.global	_ZN7creator9MPL3115A2C1EPNS_3I2CEh
  61              		.thumb_set _ZN7creator9MPL3115A2C1EPNS_3I2CEh,_ZN7creator9MPL3115A2C2EPNS_3I2CEh
  62              		.section	.text._ZN7creator9MPL3115A25BeginEv,"ax",%progbits
  63              		.align	2
  64              		.p2align 4,,15
  65              		.global	_ZN7creator9MPL3115A25BeginEv
  66              		.thumb
  67              		.thumb_func
  68              		.type	_ZN7creator9MPL3115A25BeginEv, %function
  69              	_ZN7creator9MPL3115A25BeginEv:
  70              		.fnstart
  71              	.LFB39:
  72              		.loc 1 40 0
  73              		.cfi_startproc
  74              		@ args = 0, pretend = 0, frame = 0
  75              		@ frame_needed = 0, uses_anonymous_args = 0
  76              	.LVL1:
  77 0000 10B5     		push	{r4, lr}
  78              		.save {r4, lr}
  79              		.cfi_def_cfa_offset 8
  80              		.cfi_offset 4, -8
  81              		.cfi_offset 14, -4
  82              		.loc 1 40 0
  83 0002 0446     		mov	r4, r0
  84              	.LVL2:
  85              	.LBB45:
  86              	.LBB46:
  87              	.LBB47:
  88              		.loc 1 138 0
  89 0004 0C22     		movs	r2, #12
  90 0006 0068     		ldr	r0, [r0]
  91              	.LVL3:
  92 0008 2179     		ldrb	r1, [r4, #4]	@ zero_extendqisi2
  93 000a FFF7FEFF 		bl	_ZN7creator3I2C8ReadByteEhh
  94              	.LVL4:
  95              	.LBE47:
  96              	.LBE46:
  97              		.loc 1 42 0
  98 000e C428     		cmp	r0, #196
  99 0010 01D0     		beq	.L8
 100              		.loc 1 43 0
 101 0012 0020     		movs	r0, #0
 102              	.LVL5:
 103              	.LBE45:
 104              		.loc 1 58 0
 105 0014 10BD     		pop	{r4, pc}
 106              	.LVL6:
 107              	.L8:
 108              	.LBB56:
 109              	.LBB48:
 110              	.LBB49:
 111              		.loc 1 138 0
 112 0016 2179     		ldrb	r1, [r4, #4]	@ zero_extendqisi2
 113 0018 2068     		ldr	r0, [r4]
 114              	.LVL7:
ARM GAS  /tmp/ccE0uw0Y.s 			page 3


 115 001a 2622     		movs	r2, #38
 116 001c FFF7FEFF 		bl	_ZN7creator3I2C8ReadByteEhh
 117              	.LVL8:
 118              	.LBE49:
 119              	.LBE48:
 120              		.loc 1 48 0
 121 0020 C0B2     		uxtb	r0, r0
 122 0022 40F03803 		orr	r3, r0, #56
 123 0026 6371     		strb	r3, [r4, #5]
 124              	.LVL9:
 125              	.LBB50:
 126              	.LBB51:
 127              		.loc 1 140 0
 128 0028 2068     		ldr	r0, [r4]
 129 002a 2179     		ldrb	r1, [r4, #4]	@ zero_extendqisi2
 130 002c 2622     		movs	r2, #38
 131 002e FFF7FEFF 		bl	_ZN7creator3I2C9WriteByteEhhh
 132              	.LVL10:
 133              	.LBE51:
 134              	.LBE50:
 135              		.loc 1 51 0
 136 0032 A379     		ldrb	r3, [r4, #6]	@ zero_extendqisi2
 137              	.LBB52:
 138              	.LBB53:
 139              		.loc 1 140 0
 140 0034 2068     		ldr	r0, [r4]
 141              	.LBE53:
 142              	.LBE52:
 143              		.loc 1 53 0
 144 0036 43F00703 		orr	r3, r3, #7
 145 003a A371     		strb	r3, [r4, #6]
 146              	.LVL11:
 147              	.LBB55:
 148              	.LBB54:
 149              		.loc 1 140 0
 150 003c 2179     		ldrb	r1, [r4, #4]	@ zero_extendqisi2
 151 003e 1322     		movs	r2, #19
 152 0040 FFF7FEFF 		bl	_ZN7creator3I2C9WriteByteEhhh
 153              	.LVL12:
 154              	.LBE54:
 155              	.LBE55:
 156              		.loc 1 57 0
 157 0044 0120     		movs	r0, #1
 158 0046 10BD     		pop	{r4, pc}
 159              	.LBE56:
 160              		.cfi_endproc
 161              	.LFE39:
 162              		.fnend
 163              		.size	_ZN7creator9MPL3115A25BeginEv, .-_ZN7creator9MPL3115A25BeginEv
 164              		.global	__aeabi_ui2f
 165              		.global	__aeabi_fmul
 166              		.section	.text._ZN7creator9MPL3115A211GetPressureEv,"ax",%progbits
 167              		.align	2
 168              		.p2align 4,,15
 169              		.global	_ZN7creator9MPL3115A211GetPressureEv
 170              		.thumb
 171              		.thumb_func
ARM GAS  /tmp/ccE0uw0Y.s 			page 4


 172              		.type	_ZN7creator9MPL3115A211GetPressureEv, %function
 173              	_ZN7creator9MPL3115A211GetPressureEv:
 174              		.fnstart
 175              	.LFB40:
 176              		.loc 1 61 0
 177              		.cfi_startproc
 178              		@ args = 0, pretend = 0, frame = 8
 179              		@ frame_needed = 0, uses_anonymous_args = 0
 180              	.LVL13:
 181 0000 10B5     		push	{r4, lr}
 182              		.save {r4, lr}
 183              		.cfi_def_cfa_offset 8
 184              		.cfi_offset 4, -8
 185              		.cfi_offset 14, -4
 186 0002 0446     		mov	r4, r0
 187              	.LVL14:
 188              		.pad #16
 189 0004 84B0     		sub	sp, sp, #16
 190              		.cfi_def_cfa_offset 24
 191              	.LBB57:
 192              	.LBB58:
 193              	.LBB59:
 194              		.loc 1 138 0
 195 0006 2179     		ldrb	r1, [r4, #4]	@ zero_extendqisi2
 196 0008 2622     		movs	r2, #38
 197 000a 0068     		ldr	r0, [r0]
 198              	.LVL15:
 199 000c FFF7FEFF 		bl	_ZN7creator3I2C8ReadByteEhh
 200              	.LVL16:
 201              	.LBE59:
 202              	.LBE58:
 203              		.loc 1 66 0
 204 0010 00F0FD03 		and	r3, r0, #253
 205 0014 6FF3C713 		bfc	r3, #7, #1
 206 0018 6371     		strb	r3, [r4, #5]
 207              	.LVL17:
 208              	.LBB60:
 209              	.LBB61:
 210              		.loc 1 140 0
 211 001a 2068     		ldr	r0, [r4]
 212 001c DBB2     		uxtb	r3, r3
 213              	.LVL18:
 214 001e 2179     		ldrb	r1, [r4, #4]	@ zero_extendqisi2
 215 0020 2622     		movs	r2, #38
 216 0022 FFF7FEFF 		bl	_ZN7creator3I2C9WriteByteEhhh
 217              	.LVL19:
 218              	.LBE61:
 219              	.LBE60:
 220              	.LBB62:
 221              	.LBB63:
 222              		.loc 1 138 0
 223 0026 2179     		ldrb	r1, [r4, #4]	@ zero_extendqisi2
 224 0028 2068     		ldr	r0, [r4]
 225 002a 2622     		movs	r2, #38
 226 002c FFF7FEFF 		bl	_ZN7creator3I2C8ReadByteEhh
 227              	.LVL20:
 228              	.LBE63:
ARM GAS  /tmp/ccE0uw0Y.s 			page 5


 229              	.LBE62:
 230              		.loc 1 70 0
 231 0030 C0B2     		uxtb	r0, r0
 232 0032 40F00203 		orr	r3, r0, #2
 233 0036 6371     		strb	r3, [r4, #5]
 234              	.LVL21:
 235              	.LBB64:
 236              	.LBB65:
 237              		.loc 1 140 0
 238 0038 2068     		ldr	r0, [r4]
 239 003a 2179     		ldrb	r1, [r4, #4]	@ zero_extendqisi2
 240 003c 2622     		movs	r2, #38
 241 003e FFF7FEFF 		bl	_ZN7creator3I2C9WriteByteEhhh
 242              	.LVL22:
 243 0042 01E0     		b	.L11
 244              	.LVL23:
 245              	.L13:
 246              	.LBE65:
 247              	.LBE64:
 248              		.loc 1 77 0
 249 0044 FFF7FEFF 		bl	chThdSleep
 250              	.LVL24:
 251              	.L11:
 252              	.LBB66:
 253              	.LBB67:
 254              		.loc 1 138 0
 255 0048 2068     		ldr	r0, [r4]
 256 004a 2179     		ldrb	r1, [r4, #4]	@ zero_extendqisi2
 257 004c 0022     		movs	r2, #0
 258 004e FFF7FEFF 		bl	_ZN7creator3I2C8ReadByteEhh
 259              	.LVL25:
 260              	.LBE67:
 261              	.LBE66:
 262              		.loc 1 76 0
 263 0052 10F0040F 		tst	r0, #4
 264              		.loc 1 75 0
 265 0056 E071     		strb	r0, [r4, #7]
 266              		.loc 1 77 0
 267 0058 4FF06400 		mov	r0, #100
 268              		.loc 1 76 0
 269 005c F2D0     		beq	.L13
 270              		.loc 1 81 0
 271 005e 0323     		movs	r3, #3
 272 0060 2179     		ldrb	r1, [r4, #4]	@ zero_extendqisi2
 273 0062 2068     		ldr	r0, [r4]
 274 0064 0122     		movs	r2, #1
 275 0066 0093     		str	r3, [sp]
 276 0068 03AB     		add	r3, sp, #12
 277 006a FFF7FEFF 		bl	_ZN7creator3I2C9ReadBytesEhhPhh
 278              	.LVL26:
 279              		.loc 1 83 0
 280 006e 9DF80D20 		ldrb	r2, [sp, #13]	@ zero_extendqisi2
 281              	.LVL27:
 282 0072 9DF80C30 		ldrb	r3, [sp, #12]	@ zero_extendqisi2
 283              	.LVL28:
 284 0076 1202     		lsls	r2, r2, #8
 285              	.LVL29:
ARM GAS  /tmp/ccE0uw0Y.s 			page 6


 286 0078 9DF80E00 		ldrb	r0, [sp, #14]	@ zero_extendqisi2
 287 007c 42EA0343 		orr	r3, r2, r3, lsl #16
 288              	.LVL30:
 289 0080 1843     		orrs	r0, r0, r3
 290              		.loc 1 85 0
 291 0082 0009     		lsrs	r0, r0, #4
 292 0084 FFF7FEFF 		bl	__aeabi_ui2f
 293              	.LVL31:
 294 0088 4FF07A51 		mov	r1, #1048576000
 295 008c FFF7FEFF 		bl	__aeabi_fmul
 296              	.LVL32:
 297              	.LBE57:
 298              		.loc 1 86 0
 299 0090 04B0     		add	sp, sp, #16
 300              		.cfi_def_cfa_offset 8
 301              		@ sp needed
 302 0092 10BD     		pop	{r4, pc}
 303              		.cfi_endproc
 304              	.LFE40:
 305              		.fnend
 306              		.size	_ZN7creator9MPL3115A211GetPressureEv, .-_ZN7creator9MPL3115A211GetPressureEv
 307              		.global	__aeabi_i2f
 308              		.section	.text._ZN7creator9MPL3115A211GetAltitudeEv,"ax",%progbits
 309              		.align	2
 310              		.p2align 4,,15
 311              		.global	_ZN7creator9MPL3115A211GetAltitudeEv
 312              		.thumb
 313              		.thumb_func
 314              		.type	_ZN7creator9MPL3115A211GetAltitudeEv, %function
 315              	_ZN7creator9MPL3115A211GetAltitudeEv:
 316              		.fnstart
 317              	.LFB41:
 318              		.loc 1 88 0
 319              		.cfi_startproc
 320              		@ args = 0, pretend = 0, frame = 8
 321              		@ frame_needed = 0, uses_anonymous_args = 0
 322              	.LVL33:
 323 0000 10B5     		push	{r4, lr}
 324              		.save {r4, lr}
 325              		.cfi_def_cfa_offset 8
 326              		.cfi_offset 4, -8
 327              		.cfi_offset 14, -4
 328 0002 0446     		mov	r4, r0
 329              	.LVL34:
 330              		.pad #16
 331 0004 84B0     		sub	sp, sp, #16
 332              		.cfi_def_cfa_offset 24
 333              	.LBB68:
 334              	.LBB69:
 335              	.LBB70:
 336              		.loc 1 138 0
 337 0006 2179     		ldrb	r1, [r4, #4]	@ zero_extendqisi2
 338 0008 2622     		movs	r2, #38
 339 000a 0068     		ldr	r0, [r0]
 340              	.LVL35:
 341 000c FFF7FEFF 		bl	_ZN7creator3I2C8ReadByteEhh
 342              	.LVL36:
ARM GAS  /tmp/ccE0uw0Y.s 			page 7


 343              	.LBE70:
 344              	.LBE69:
 345              		.loc 1 93 0
 346 0010 00F0FD00 		and	r0, r0, #253
 347 0014 40F08003 		orr	r3, r0, #128
 348 0018 6371     		strb	r3, [r4, #5]
 349              	.LVL37:
 350              	.LBB71:
 351              	.LBB72:
 352              		.loc 1 140 0
 353 001a 2068     		ldr	r0, [r4]
 354 001c 2179     		ldrb	r1, [r4, #4]	@ zero_extendqisi2
 355 001e 2622     		movs	r2, #38
 356 0020 FFF7FEFF 		bl	_ZN7creator3I2C9WriteByteEhhh
 357              	.LVL38:
 358              	.LBE72:
 359              	.LBE71:
 360              	.LBB73:
 361              	.LBB74:
 362              		.loc 1 138 0
 363 0024 2179     		ldrb	r1, [r4, #4]	@ zero_extendqisi2
 364 0026 2068     		ldr	r0, [r4]
 365 0028 2622     		movs	r2, #38
 366 002a FFF7FEFF 		bl	_ZN7creator3I2C8ReadByteEhh
 367              	.LVL39:
 368              	.LBE74:
 369              	.LBE73:
 370              		.loc 1 97 0
 371 002e C0B2     		uxtb	r0, r0
 372 0030 40F00203 		orr	r3, r0, #2
 373 0034 6371     		strb	r3, [r4, #5]
 374              	.LVL40:
 375              	.LBB75:
 376              	.LBB76:
 377              		.loc 1 140 0
 378 0036 2068     		ldr	r0, [r4]
 379 0038 2179     		ldrb	r1, [r4, #4]	@ zero_extendqisi2
 380 003a 2622     		movs	r2, #38
 381 003c FFF7FEFF 		bl	_ZN7creator3I2C9WriteByteEhhh
 382              	.LVL41:
 383 0040 01E0     		b	.L16
 384              	.LVL42:
 385              	.L22:
 386              	.LBE76:
 387              	.LBE75:
 388              		.loc 1 104 0
 389 0042 FFF7FEFF 		bl	chThdSleep
 390              	.LVL43:
 391              	.L16:
 392              	.LBB77:
 393              	.LBB78:
 394              		.loc 1 138 0
 395 0046 2068     		ldr	r0, [r4]
 396 0048 2179     		ldrb	r1, [r4, #4]	@ zero_extendqisi2
 397 004a 0022     		movs	r2, #0
 398 004c FFF7FEFF 		bl	_ZN7creator3I2C8ReadByteEhh
 399              	.LVL44:
ARM GAS  /tmp/ccE0uw0Y.s 			page 8


 400              	.LBE78:
 401              	.LBE77:
 402              		.loc 1 103 0
 403 0050 10F0040F 		tst	r0, #4
 404              		.loc 1 102 0
 405 0054 E071     		strb	r0, [r4, #7]
 406              		.loc 1 104 0
 407 0056 4FF06400 		mov	r0, #100
 408              		.loc 1 103 0
 409 005a F2D0     		beq	.L22
 410              		.loc 1 108 0
 411 005c 0323     		movs	r3, #3
 412 005e 2179     		ldrb	r1, [r4, #4]	@ zero_extendqisi2
 413 0060 2068     		ldr	r0, [r4]
 414 0062 0122     		movs	r2, #1
 415 0064 0093     		str	r3, [sp]
 416 0066 03AB     		add	r3, sp, #12
 417 0068 FFF7FEFF 		bl	_ZN7creator3I2C9ReadBytesEhhPhh
 418              	.LVL45:
 419              		.loc 1 110 0
 420 006c 9DF80D20 		ldrb	r2, [sp, #13]	@ zero_extendqisi2
 421 0070 9DF80C00 		ldrb	r0, [sp, #12]	@ zero_extendqisi2
 422 0074 9DF80E30 		ldrb	r3, [sp, #14]	@ zero_extendqisi2
 423 0078 1202     		lsls	r2, r2, #8
 424 007a 42EA0040 		orr	r0, r2, r0, lsl #16
 425 007e 1843     		orrs	r0, r0, r3
 426 0080 0011     		asrs	r0, r0, #4
 427              	.LVL46:
 428              		.loc 1 111 0
 429 0082 0303     		lsls	r3, r0, #12
 430 0084 44BF     		itt	mi
 431 0086 6FEA0030 		mvnmi	r0, r0, lsl #12
 432              	.LVL47:
 433 008a 6FEA1030 		mvnmi	r0, r0, lsr #12
 434              	.LVL48:
 435              		.loc 1 112 0
 436 008e FFF7FEFF 		bl	__aeabi_i2f
 437              	.LVL49:
 438 0092 4FF07651 		mov	r1, #1031798784
 439 0096 FFF7FEFF 		bl	__aeabi_fmul
 440              	.LVL50:
 441              	.LBE68:
 442              		.loc 1 113 0
 443 009a 04B0     		add	sp, sp, #16
 444              		.cfi_def_cfa_offset 8
 445              		@ sp needed
 446 009c 10BD     		pop	{r4, pc}
 447              		.cfi_endproc
 448              	.LFE41:
 449              		.fnend
 450              		.size	_ZN7creator9MPL3115A211GetAltitudeEv, .-_ZN7creator9MPL3115A211GetAltitudeEv
 451 009e 00BF     		.section	.text._ZN7creator9MPL3115A214GetTemperatureEv,"ax",%progbits
 452              		.align	2
 453              		.p2align 4,,15
 454              		.global	_ZN7creator9MPL3115A214GetTemperatureEv
 455              		.thumb
 456              		.thumb_func
ARM GAS  /tmp/ccE0uw0Y.s 			page 9


 457              		.type	_ZN7creator9MPL3115A214GetTemperatureEv, %function
 458              	_ZN7creator9MPL3115A214GetTemperatureEv:
 459              		.fnstart
 460              	.LFB42:
 461              		.loc 1 116 0
 462              		.cfi_startproc
 463              		@ args = 0, pretend = 0, frame = 8
 464              		@ frame_needed = 0, uses_anonymous_args = 0
 465              	.LVL51:
 466 0000 10B5     		push	{r4, lr}
 467              		.save {r4, lr}
 468              		.cfi_def_cfa_offset 8
 469              		.cfi_offset 4, -8
 470              		.cfi_offset 14, -4
 471 0002 0446     		mov	r4, r0
 472              	.LVL52:
 473              		.pad #16
 474 0004 84B0     		sub	sp, sp, #16
 475              		.cfi_def_cfa_offset 24
 476              	.LBB79:
 477              	.LBB80:
 478              	.LBB81:
 479              		.loc 1 138 0
 480 0006 2179     		ldrb	r1, [r4, #4]	@ zero_extendqisi2
 481 0008 2622     		movs	r2, #38
 482 000a 0068     		ldr	r0, [r0]
 483              	.LVL53:
 484 000c FFF7FEFF 		bl	_ZN7creator3I2C8ReadByteEhh
 485              	.LVL54:
 486              	.LBE81:
 487              	.LBE80:
 488              		.loc 1 118 0
 489 0010 6FF34100 		bfc	r0, #1, #1
 490              	.LBB82:
 491              	.LBB83:
 492              		.loc 1 140 0
 493 0014 C3B2     		uxtb	r3, r0
 494              	.LBE83:
 495              	.LBE82:
 496              		.loc 1 118 0
 497 0016 6071     		strb	r0, [r4, #5]
 498              	.LVL55:
 499              	.LBB85:
 500              	.LBB84:
 501              		.loc 1 140 0
 502 0018 2179     		ldrb	r1, [r4, #4]	@ zero_extendqisi2
 503 001a 2068     		ldr	r0, [r4]
 504              	.LVL56:
 505 001c 2622     		movs	r2, #38
 506 001e FFF7FEFF 		bl	_ZN7creator3I2C9WriteByteEhhh
 507              	.LVL57:
 508              	.LBE84:
 509              	.LBE85:
 510              	.LBB86:
 511              	.LBB87:
 512              		.loc 1 138 0
 513 0022 2179     		ldrb	r1, [r4, #4]	@ zero_extendqisi2
ARM GAS  /tmp/ccE0uw0Y.s 			page 10


 514 0024 2068     		ldr	r0, [r4]
 515 0026 2622     		movs	r2, #38
 516 0028 FFF7FEFF 		bl	_ZN7creator3I2C8ReadByteEhh
 517              	.LVL58:
 518              	.LBE87:
 519              	.LBE86:
 520              		.loc 1 122 0
 521 002c C0B2     		uxtb	r0, r0
 522 002e 40F00203 		orr	r3, r0, #2
 523 0032 6371     		strb	r3, [r4, #5]
 524              	.LVL59:
 525              	.LBB88:
 526              	.LBB89:
 527              		.loc 1 140 0
 528 0034 2068     		ldr	r0, [r4]
 529 0036 2179     		ldrb	r1, [r4, #4]	@ zero_extendqisi2
 530 0038 2622     		movs	r2, #38
 531 003a FFF7FEFF 		bl	_ZN7creator3I2C9WriteByteEhhh
 532              	.LVL60:
 533 003e 01E0     		b	.L25
 534              	.LVL61:
 535              	.L27:
 536              	.LBE89:
 537              	.LBE88:
 538              		.loc 1 129 0
 539 0040 FFF7FEFF 		bl	chThdSleep
 540              	.LVL62:
 541              	.L25:
 542              	.LBB90:
 543              	.LBB91:
 544              		.loc 1 138 0
 545 0044 2068     		ldr	r0, [r4]
 546 0046 2179     		ldrb	r1, [r4, #4]	@ zero_extendqisi2
 547 0048 0022     		movs	r2, #0
 548 004a FFF7FEFF 		bl	_ZN7creator3I2C8ReadByteEhh
 549              	.LVL63:
 550              	.LBE91:
 551              	.LBE90:
 552              		.loc 1 128 0
 553 004e 10F0020F 		tst	r0, #2
 554              		.loc 1 127 0
 555 0052 E071     		strb	r0, [r4, #7]
 556              		.loc 1 129 0
 557 0054 4FF06400 		mov	r0, #100
 558              		.loc 1 128 0
 559 0058 F2D0     		beq	.L27
 560              		.loc 1 133 0
 561 005a 0223     		movs	r3, #2
 562 005c 2179     		ldrb	r1, [r4, #4]	@ zero_extendqisi2
 563 005e 0422     		movs	r2, #4
 564 0060 2068     		ldr	r0, [r4]
 565 0062 0093     		str	r3, [sp]
 566 0064 03AB     		add	r3, sp, #12
 567 0066 FFF7FEFF 		bl	_ZN7creator3I2C9ReadBytesEhhPhh
 568              	.LVL64:
 569              		.loc 1 135 0
 570 006a 9DF80D30 		ldrb	r3, [sp, #13]	@ zero_extendqisi2
ARM GAS  /tmp/ccE0uw0Y.s 			page 11


 571 006e 9DF80C00 		ldrb	r0, [sp, #12]	@ zero_extendqisi2
 572 0072 43EA0020 		orr	r0, r3, r0, lsl #8
 573 0076 0009     		lsrs	r0, r0, #4
 574 0078 FFF7FEFF 		bl	__aeabi_i2f
 575              	.LVL65:
 576 007c 4FF07651 		mov	r1, #1031798784
 577 0080 FFF7FEFF 		bl	__aeabi_fmul
 578              	.LVL66:
 579              	.LBE79:
 580              		.loc 1 136 0
 581 0084 04B0     		add	sp, sp, #16
 582              		.cfi_def_cfa_offset 8
 583              		@ sp needed
 584 0086 10BD     		pop	{r4, pc}
 585              		.cfi_endproc
 586              	.LFE42:
 587              		.fnend
 588              		.size	_ZN7creator9MPL3115A214GetTemperatureEv, .-_ZN7creator9MPL3115A214GetTemperatureEv
 589              		.section	.text._ZN7creator9MPL3115A24ReadEh,"ax",%progbits
 590              		.align	2
 591              		.p2align 4,,15
 592              		.global	_ZN7creator9MPL3115A24ReadEh
 593              		.thumb
 594              		.thumb_func
 595              		.type	_ZN7creator9MPL3115A24ReadEh, %function
 596              	_ZN7creator9MPL3115A24ReadEh:
 597              		.fnstart
 598              	.LFB43:
 599              		.loc 1 138 0
 600              		.cfi_startproc
 601              		@ args = 0, pretend = 0, frame = 0
 602              		@ frame_needed = 0, uses_anonymous_args = 0
 603              		@ link register save eliminated.
 604              	.LVL67:
 605              		.loc 1 138 0
 606 0000 0346     		mov	r3, r0
 607 0002 0A46     		mov	r2, r1
 608 0004 0068     		ldr	r0, [r0]
 609              	.LVL68:
 610 0006 1979     		ldrb	r1, [r3, #4]	@ zero_extendqisi2
 611              	.LVL69:
 612 0008 FFF7FEBF 		b	_ZN7creator3I2C8ReadByteEhh
 613              	.LVL70:
 614              		.cfi_endproc
 615              	.LFE43:
 616              		.cantunwind
 617              		.fnend
 618              		.size	_ZN7creator9MPL3115A24ReadEh, .-_ZN7creator9MPL3115A24ReadEh
 619              		.section	.text._ZN7creator9MPL3115A25WriteEhh,"ax",%progbits
 620              		.align	2
 621              		.p2align 4,,15
 622              		.global	_ZN7creator9MPL3115A25WriteEhh
 623              		.thumb
 624              		.thumb_func
 625              		.type	_ZN7creator9MPL3115A25WriteEhh, %function
 626              	_ZN7creator9MPL3115A25WriteEhh:
 627              		.fnstart
ARM GAS  /tmp/ccE0uw0Y.s 			page 12


 628              	.LFB44:
 629              		.loc 1 140 0
 630              		.cfi_startproc
 631              		@ args = 0, pretend = 0, frame = 0
 632              		@ frame_needed = 0, uses_anonymous_args = 0
 633              		@ link register save eliminated.
 634              	.LVL71:
 635 0000 10B4     		push	{r4}
 636              		.cfi_def_cfa_offset 4
 637              		.cfi_offset 4, -4
 638              		.loc 1 140 0
 639 0002 0446     		mov	r4, r0
 640 0004 1346     		mov	r3, r2
 641 0006 0068     		ldr	r0, [r0]
 642              	.LVL72:
 643 0008 0A46     		mov	r2, r1
 644              	.LVL73:
 645 000a 2179     		ldrb	r1, [r4, #4]	@ zero_extendqisi2
 646              	.LVL74:
 647 000c 5DF8044B 		ldr	r4, [sp], #4
 648              		.cfi_restore 4
 649              		.cfi_def_cfa_offset 0
 650              	.LVL75:
 651 0010 FFF7FEBF 		b	_ZN7creator3I2C9WriteByteEhhh
 652              	.LVL76:
 653              		.cfi_endproc
 654              	.LFE44:
 655              		.cantunwind
 656              		.fnend
 657              		.size	_ZN7creator9MPL3115A25WriteEhh, .-_ZN7creator9MPL3115A25WriteEhh
 658              		.text
 659              	.Letext0:
 660              		.file 2 "/usr/include/newlib/machine/_default_types.h"
 661              		.file 3 "/usr/include/newlib/sys/_stdint.h"
 662              		.file 4 "../third_party/ChibiOS/os/ports/GCC/ARMCMx/chtypes.h"
 663              		.file 5 "../third_party/ChibiOS/os/hal/platforms/AT91SAM3S/at91lib/SAM3S.h"
 664              		.file 6 "../third_party/ChibiOS/os/hal/platforms/AT91SAM3S/async.h"
 665              		.file 7 "../third_party/ChibiOS/os/hal/platforms/AT91SAM3S/atmel_twid.h"
 666              		.file 8 "././i2c.h"
 667              		.file 9 "./mpl3115a2.h"
 668              		.file 10 "../third_party/ChibiOS/os/hal/platforms/AT91SAM3S/core_cm3.h"
 669              		.file 11 "../third_party/ChibiOS/os/kernel/include/chthreads.h"